ARM GAS  C:\Users\3kb\AppData\Local\Temp\ccoOmmoe.s 			page 1


   1              		.cpu cortex-m4
   2              		.arch armv7e-m
   3              		.fpu fpv4-sp-d16
   4              		.eabi_attribute 27, 1
   5              		.eabi_attribute 28, 1
   6              		.eabi_attribute 20, 1
   7              		.eabi_attribute 21, 1
   8              		.eabi_attribute 23, 3
   9              		.eabi_attribute 24, 1
  10              		.eabi_attribute 25, 1
  11              		.eabi_attribute 26, 1
  12              		.eabi_attribute 30, 1
  13              		.eabi_attribute 34, 1
  14              		.eabi_attribute 18, 4
  15              		.file	"main.c"
  16              		.text
  17              	.Ltext0:
  18              		.cfi_sections	.debug_frame
  19              		.file 1 "Core/Src/main.c"
  20              		.section	.text.Error_Handler,"ax",%progbits
  21              		.align	1
  22              		.global	Error_Handler
  23              		.syntax unified
  24              		.thumb
  25              		.thumb_func
  27              	Error_Handler:
  28              	.LFB136:
   1:Core/Src/main.c **** /* USER CODE BEGIN Header */
   2:Core/Src/main.c **** /**
   3:Core/Src/main.c ****   ******************************************************************************
   4:Core/Src/main.c ****   * @file           : main.c
   5:Core/Src/main.c ****   * @brief          : Main program body
   6:Core/Src/main.c ****   ******************************************************************************
   7:Core/Src/main.c ****   * @attention
   8:Core/Src/main.c ****   *
   9:Core/Src/main.c ****   * Copyright (c) 2024 STMicroelectronics.
  10:Core/Src/main.c ****   * All rights reserved.
  11:Core/Src/main.c ****   *
  12:Core/Src/main.c ****   * This software is licensed under terms that can be found in the LICENSE file
  13:Core/Src/main.c ****   * in the root directory of this software component.
  14:Core/Src/main.c ****   * If no LICENSE file comes with this software, it is provided AS-IS.
  15:Core/Src/main.c ****   *
  16:Core/Src/main.c ****   ******************************************************************************
  17:Core/Src/main.c ****   */
  18:Core/Src/main.c **** /* USER CODE END Header */
  19:Core/Src/main.c **** /* Includes ------------------------------------------------------------------*/
  20:Core/Src/main.c **** #include "main.h"
  21:Core/Src/main.c **** #include "i2c.h"
  22:Core/Src/main.c **** #include "gpio.h"
  23:Core/Src/main.c **** 
  24:Core/Src/main.c **** /* Private includes ----------------------------------------------------------*/
  25:Core/Src/main.c **** /* USER CODE BEGIN Includes */
  26:Core/Src/main.c **** #include "ssd1306.h"
  27:Core/Src/main.c **** #include "ssd1306_fonts.h"
  28:Core/Src/main.c **** #include "bitmap.h"
  29:Core/Src/main.c **** /* USER CODE END Includes */
  30:Core/Src/main.c **** 
ARM GAS  C:\Users\3kb\AppData\Local\Temp\ccoOmmoe.s 			page 2


  31:Core/Src/main.c **** /* Private typedef -----------------------------------------------------------*/
  32:Core/Src/main.c **** /* USER CODE BEGIN PTD */
  33:Core/Src/main.c **** 
  34:Core/Src/main.c **** /* USER CODE END PTD */
  35:Core/Src/main.c **** 
  36:Core/Src/main.c **** /* Private define ------------------------------------------------------------*/
  37:Core/Src/main.c **** /* USER CODE BEGIN PD */
  38:Core/Src/main.c **** 
  39:Core/Src/main.c **** /* USER CODE END PD */
  40:Core/Src/main.c **** 
  41:Core/Src/main.c **** /* Private macro -------------------------------------------------------------*/
  42:Core/Src/main.c **** /* USER CODE BEGIN PM */
  43:Core/Src/main.c **** 
  44:Core/Src/main.c **** /* USER CODE END PM */
  45:Core/Src/main.c **** 
  46:Core/Src/main.c **** /* Private variables ---------------------------------------------------------*/
  47:Core/Src/main.c **** 
  48:Core/Src/main.c **** /* USER CODE BEGIN PV */
  49:Core/Src/main.c **** 
  50:Core/Src/main.c **** /* USER CODE END PV */
  51:Core/Src/main.c **** 
  52:Core/Src/main.c **** /* Private function prototypes -----------------------------------------------*/
  53:Core/Src/main.c **** void SystemClock_Config(void);
  54:Core/Src/main.c **** /* USER CODE BEGIN PFP */
  55:Core/Src/main.c **** 
  56:Core/Src/main.c **** /* USER CODE END PFP */
  57:Core/Src/main.c **** 
  58:Core/Src/main.c **** /* Private user code ---------------------------------------------------------*/
  59:Core/Src/main.c **** /* USER CODE BEGIN 0 */
  60:Core/Src/main.c **** 
  61:Core/Src/main.c **** /* USER CODE END 0 */
  62:Core/Src/main.c **** 
  63:Core/Src/main.c **** /**
  64:Core/Src/main.c ****   * @brief  The application entry point.
  65:Core/Src/main.c ****   * @retval int
  66:Core/Src/main.c ****   */
  67:Core/Src/main.c **** int main(void)
  68:Core/Src/main.c **** {
  69:Core/Src/main.c **** 
  70:Core/Src/main.c ****   /* USER CODE BEGIN 1 */
  71:Core/Src/main.c **** 
  72:Core/Src/main.c ****   /* USER CODE END 1 */
  73:Core/Src/main.c **** 
  74:Core/Src/main.c ****   /* MCU Configuration--------------------------------------------------------*/
  75:Core/Src/main.c **** 
  76:Core/Src/main.c ****   /* Reset of all peripherals, Initializes the Flash interface and the Systick. */
  77:Core/Src/main.c ****   HAL_Init();
  78:Core/Src/main.c **** 
  79:Core/Src/main.c ****   /* USER CODE BEGIN Init */
  80:Core/Src/main.c **** 
  81:Core/Src/main.c ****   /* USER CODE END Init */
  82:Core/Src/main.c **** 
  83:Core/Src/main.c ****   /* Configure the system clock */
  84:Core/Src/main.c ****   SystemClock_Config();
  85:Core/Src/main.c **** 
  86:Core/Src/main.c ****   /* USER CODE BEGIN SysInit */
  87:Core/Src/main.c **** 
ARM GAS  C:\Users\3kb\AppData\Local\Temp\ccoOmmoe.s 			page 3


  88:Core/Src/main.c ****   /* USER CODE END SysInit */
  89:Core/Src/main.c **** 
  90:Core/Src/main.c ****   /* Initialize all configured peripherals */
  91:Core/Src/main.c ****   MX_GPIO_Init();
  92:Core/Src/main.c ****   MX_I2C1_Init();
  93:Core/Src/main.c ****   /* USER CODE BEGIN 2 */
  94:Core/Src/main.c ****   ssd1306_Init();
  95:Core/Src/main.c ****   ssd1306_SetCursor(10,10);
  96:Core/Src/main.c ****   ssd1306_WriteString("Hello guys", Font_7x10, White);
  97:Core/Src/main.c ****   ssd1306_SetCursor(10,20);
  98:Core/Src/main.c ****   ssd1306_WriteString("makefile test", Font_7x10, White);
  99:Core/Src/main.c ****   ssd1306_SetCursor(10,30);
 100:Core/Src/main.c ****   ssd1306_WriteString("by 3kb bilibili", Font_7x10, White);
 101:Core/Src/main.c ****   ssd1306_SetCursor(10,40);
 102:Core/Src/main.c ****   ssd1306_WriteString("ssd1306 0.96'' OLED", Font_6x8, White);
 103:Core/Src/main.c ****   ssd1306_SetCursor(10,50); 
 104:Core/Src/main.c ****   ssd1306_WriteString("STM32F407VET6", Font_6x8, White);
 105:Core/Src/main.c ****   ssd1306_UpdateScreen();
 106:Core/Src/main.c ****   HAL_Delay(5000);
 107:Core/Src/main.c ****   ssd1306_Reset();
 108:Core/Src/main.c ****   /* USER CODE END 2 */
 109:Core/Src/main.c **** 
 110:Core/Src/main.c ****   /* Infinite loop */
 111:Core/Src/main.c ****   /* USER CODE BEGIN WHILE */
 112:Core/Src/main.c ****   while (1)
 113:Core/Src/main.c ****   {
 114:Core/Src/main.c ****     for(uint8_t i = 0; i < 15; i ++)
 115:Core/Src/main.c **** 	  {
 116:Core/Src/main.c **** 		ssd1306_Fill(Black);
 117:Core/Src/main.c **** 		ssd1306_DrawBitmap(0,0,nyanCat[i], 128,64, White);
 118:Core/Src/main.c **** 		ssd1306_UpdateScreen();
 119:Core/Src/main.c **** 		HAL_Delay(1);
 120:Core/Src/main.c **** 	  }
 121:Core/Src/main.c ****     /* USER CODE END WHILE */
 122:Core/Src/main.c **** 
 123:Core/Src/main.c ****     /* USER CODE BEGIN 3 */
 124:Core/Src/main.c ****   }
 125:Core/Src/main.c ****   /* USER CODE END 3 */
 126:Core/Src/main.c **** }
 127:Core/Src/main.c **** 
 128:Core/Src/main.c **** /**
 129:Core/Src/main.c ****   * @brief System Clock Configuration
 130:Core/Src/main.c ****   * @retval None
 131:Core/Src/main.c ****   */
 132:Core/Src/main.c **** void SystemClock_Config(void)
 133:Core/Src/main.c **** {
 134:Core/Src/main.c ****   RCC_OscInitTypeDef RCC_OscInitStruct = {0};
 135:Core/Src/main.c ****   RCC_ClkInitTypeDef RCC_ClkInitStruct = {0};
 136:Core/Src/main.c **** 
 137:Core/Src/main.c ****   /** Configure the main internal regulator output voltage
 138:Core/Src/main.c ****   */
 139:Core/Src/main.c ****   __HAL_RCC_PWR_CLK_ENABLE();
 140:Core/Src/main.c ****   __HAL_PWR_VOLTAGESCALING_CONFIG(PWR_REGULATOR_VOLTAGE_SCALE1);
 141:Core/Src/main.c **** 
 142:Core/Src/main.c ****   /** Initializes the RCC Oscillators according to the specified parameters
 143:Core/Src/main.c ****   * in the RCC_OscInitTypeDef structure.
 144:Core/Src/main.c ****   */
ARM GAS  C:\Users\3kb\AppData\Local\Temp\ccoOmmoe.s 			page 4


 145:Core/Src/main.c ****   RCC_OscInitStruct.OscillatorType = RCC_OSCILLATORTYPE_HSI;
 146:Core/Src/main.c ****   RCC_OscInitStruct.HSIState = RCC_HSI_ON;
 147:Core/Src/main.c ****   RCC_OscInitStruct.HSICalibrationValue = RCC_HSICALIBRATION_DEFAULT;
 148:Core/Src/main.c ****   RCC_OscInitStruct.PLL.PLLState = RCC_PLL_ON;
 149:Core/Src/main.c ****   RCC_OscInitStruct.PLL.PLLSource = RCC_PLLSOURCE_HSI;
 150:Core/Src/main.c ****   RCC_OscInitStruct.PLL.PLLM = 8;
 151:Core/Src/main.c ****   RCC_OscInitStruct.PLL.PLLN = 168;
 152:Core/Src/main.c ****   RCC_OscInitStruct.PLL.PLLP = RCC_PLLP_DIV2;
 153:Core/Src/main.c ****   RCC_OscInitStruct.PLL.PLLQ = 4;
 154:Core/Src/main.c ****   if (HAL_RCC_OscConfig(&RCC_OscInitStruct) != HAL_OK)
 155:Core/Src/main.c ****   {
 156:Core/Src/main.c ****     Error_Handler();
 157:Core/Src/main.c ****   }
 158:Core/Src/main.c **** 
 159:Core/Src/main.c ****   /** Initializes the CPU, AHB and APB buses clocks
 160:Core/Src/main.c ****   */
 161:Core/Src/main.c ****   RCC_ClkInitStruct.ClockType = RCC_CLOCKTYPE_HCLK|RCC_CLOCKTYPE_SYSCLK
 162:Core/Src/main.c ****                               |RCC_CLOCKTYPE_PCLK1|RCC_CLOCKTYPE_PCLK2;
 163:Core/Src/main.c ****   RCC_ClkInitStruct.SYSCLKSource = RCC_SYSCLKSOURCE_PLLCLK;
 164:Core/Src/main.c ****   RCC_ClkInitStruct.AHBCLKDivider = RCC_SYSCLK_DIV1;
 165:Core/Src/main.c ****   RCC_ClkInitStruct.APB1CLKDivider = RCC_HCLK_DIV4;
 166:Core/Src/main.c ****   RCC_ClkInitStruct.APB2CLKDivider = RCC_HCLK_DIV2;
 167:Core/Src/main.c **** 
 168:Core/Src/main.c ****   if (HAL_RCC_ClockConfig(&RCC_ClkInitStruct, FLASH_LATENCY_5) != HAL_OK)
 169:Core/Src/main.c ****   {
 170:Core/Src/main.c ****     Error_Handler();
 171:Core/Src/main.c ****   }
 172:Core/Src/main.c **** }
 173:Core/Src/main.c **** 
 174:Core/Src/main.c **** /* USER CODE BEGIN 4 */
 175:Core/Src/main.c **** 
 176:Core/Src/main.c **** /* USER CODE END 4 */
 177:Core/Src/main.c **** 
 178:Core/Src/main.c **** /**
 179:Core/Src/main.c ****   * @brief  This function is executed in case of error occurrence.
 180:Core/Src/main.c ****   * @retval None
 181:Core/Src/main.c ****   */
 182:Core/Src/main.c **** void Error_Handler(void)
 183:Core/Src/main.c **** {
  29              		.loc 1 183 1 view -0
  30              		.cfi_startproc
  31              		@ Volatile: function does not return.
  32              		@ args = 0, pretend = 0, frame = 0
  33              		@ frame_needed = 0, uses_anonymous_args = 0
  34              		@ link register save eliminated.
 184:Core/Src/main.c ****   /* USER CODE BEGIN Error_Handler_Debug */
 185:Core/Src/main.c ****   /* User can add his own implementation to report the HAL error return state */
 186:Core/Src/main.c ****   __disable_irq();
  35              		.loc 1 186 3 view .LVU1
  36              	.LBB4:
  37              	.LBI4:
  38              		.file 2 "Drivers/CMSIS/Include/cmsis_gcc.h"
   1:Drivers/CMSIS/Include/cmsis_gcc.h **** /**************************************************************************//**
   2:Drivers/CMSIS/Include/cmsis_gcc.h ****  * @file     cmsis_gcc.h
   3:Drivers/CMSIS/Include/cmsis_gcc.h ****  * @brief    CMSIS compiler GCC header file
   4:Drivers/CMSIS/Include/cmsis_gcc.h ****  * @version  V5.4.1
   5:Drivers/CMSIS/Include/cmsis_gcc.h ****  * @date     27. May 2021
ARM GAS  C:\Users\3kb\AppData\Local\Temp\ccoOmmoe.s 			page 5


   6:Drivers/CMSIS/Include/cmsis_gcc.h ****  ******************************************************************************/
   7:Drivers/CMSIS/Include/cmsis_gcc.h **** /*
   8:Drivers/CMSIS/Include/cmsis_gcc.h ****  * Copyright (c) 2009-2021 Arm Limited. All rights reserved.
   9:Drivers/CMSIS/Include/cmsis_gcc.h ****  *
  10:Drivers/CMSIS/Include/cmsis_gcc.h ****  * SPDX-License-Identifier: Apache-2.0
  11:Drivers/CMSIS/Include/cmsis_gcc.h ****  *
  12:Drivers/CMSIS/Include/cmsis_gcc.h ****  * Licensed under the Apache License, Version 2.0 (the License); you may
  13:Drivers/CMSIS/Include/cmsis_gcc.h ****  * not use this file except in compliance with the License.
  14:Drivers/CMSIS/Include/cmsis_gcc.h ****  * You may obtain a copy of the License at
  15:Drivers/CMSIS/Include/cmsis_gcc.h ****  *
  16:Drivers/CMSIS/Include/cmsis_gcc.h ****  * www.apache.org/licenses/LICENSE-2.0
  17:Drivers/CMSIS/Include/cmsis_gcc.h ****  *
  18:Drivers/CMSIS/Include/cmsis_gcc.h ****  * Unless required by applicable law or agreed to in writing, software
  19:Drivers/CMSIS/Include/cmsis_gcc.h ****  * distributed under the License is distributed on an AS IS BASIS, WITHOUT
  20:Drivers/CMSIS/Include/cmsis_gcc.h ****  * WARRANTIES OR CONDITIONS OF ANY KIND, either express or implied.
  21:Drivers/CMSIS/Include/cmsis_gcc.h ****  * See the License for the specific language governing permissions and
  22:Drivers/CMSIS/Include/cmsis_gcc.h ****  * limitations under the License.
  23:Drivers/CMSIS/Include/cmsis_gcc.h ****  */
  24:Drivers/CMSIS/Include/cmsis_gcc.h **** 
  25:Drivers/CMSIS/Include/cmsis_gcc.h **** #ifndef __CMSIS_GCC_H
  26:Drivers/CMSIS/Include/cmsis_gcc.h **** #define __CMSIS_GCC_H
  27:Drivers/CMSIS/Include/cmsis_gcc.h **** 
  28:Drivers/CMSIS/Include/cmsis_gcc.h **** /* ignore some GCC warnings */
  29:Drivers/CMSIS/Include/cmsis_gcc.h **** #pragma GCC diagnostic push
  30:Drivers/CMSIS/Include/cmsis_gcc.h **** #pragma GCC diagnostic ignored "-Wsign-conversion"
  31:Drivers/CMSIS/Include/cmsis_gcc.h **** #pragma GCC diagnostic ignored "-Wconversion"
  32:Drivers/CMSIS/Include/cmsis_gcc.h **** #pragma GCC diagnostic ignored "-Wunused-parameter"
  33:Drivers/CMSIS/Include/cmsis_gcc.h **** 
  34:Drivers/CMSIS/Include/cmsis_gcc.h **** /* Fallback for __has_builtin */
  35:Drivers/CMSIS/Include/cmsis_gcc.h **** #ifndef __has_builtin
  36:Drivers/CMSIS/Include/cmsis_gcc.h ****   #define __has_builtin(x) (0)
  37:Drivers/CMSIS/Include/cmsis_gcc.h **** #endif
  38:Drivers/CMSIS/Include/cmsis_gcc.h **** 
  39:Drivers/CMSIS/Include/cmsis_gcc.h **** /* CMSIS compiler specific defines */
  40:Drivers/CMSIS/Include/cmsis_gcc.h **** #ifndef   __ASM
  41:Drivers/CMSIS/Include/cmsis_gcc.h ****   #define __ASM                                  __asm
  42:Drivers/CMSIS/Include/cmsis_gcc.h **** #endif
  43:Drivers/CMSIS/Include/cmsis_gcc.h **** #ifndef   __INLINE
  44:Drivers/CMSIS/Include/cmsis_gcc.h ****   #define __INLINE                               inline
  45:Drivers/CMSIS/Include/cmsis_gcc.h **** #endif
  46:Drivers/CMSIS/Include/cmsis_gcc.h **** #ifndef   __STATIC_INLINE
  47:Drivers/CMSIS/Include/cmsis_gcc.h ****   #define __STATIC_INLINE                        static inline
  48:Drivers/CMSIS/Include/cmsis_gcc.h **** #endif
  49:Drivers/CMSIS/Include/cmsis_gcc.h **** #ifndef   __STATIC_FORCEINLINE
  50:Drivers/CMSIS/Include/cmsis_gcc.h ****   #define __STATIC_FORCEINLINE                   __attribute__((always_inline)) static inline
  51:Drivers/CMSIS/Include/cmsis_gcc.h **** #endif
  52:Drivers/CMSIS/Include/cmsis_gcc.h **** #ifndef   __NO_RETURN
  53:Drivers/CMSIS/Include/cmsis_gcc.h ****   #define __NO_RETURN                            __attribute__((__noreturn__))
  54:Drivers/CMSIS/Include/cmsis_gcc.h **** #endif
  55:Drivers/CMSIS/Include/cmsis_gcc.h **** #ifndef   __USED
  56:Drivers/CMSIS/Include/cmsis_gcc.h ****   #define __USED                                 __attribute__((used))
  57:Drivers/CMSIS/Include/cmsis_gcc.h **** #endif
  58:Drivers/CMSIS/Include/cmsis_gcc.h **** #ifndef   __WEAK
  59:Drivers/CMSIS/Include/cmsis_gcc.h ****   #define __WEAK                                 __attribute__((weak))
  60:Drivers/CMSIS/Include/cmsis_gcc.h **** #endif
  61:Drivers/CMSIS/Include/cmsis_gcc.h **** #ifndef   __PACKED
  62:Drivers/CMSIS/Include/cmsis_gcc.h ****   #define __PACKED                               __attribute__((packed, aligned(1)))
ARM GAS  C:\Users\3kb\AppData\Local\Temp\ccoOmmoe.s 			page 6


  63:Drivers/CMSIS/Include/cmsis_gcc.h **** #endif
  64:Drivers/CMSIS/Include/cmsis_gcc.h **** #ifndef   __PACKED_STRUCT
  65:Drivers/CMSIS/Include/cmsis_gcc.h ****   #define __PACKED_STRUCT                        struct __attribute__((packed, aligned(1)))
  66:Drivers/CMSIS/Include/cmsis_gcc.h **** #endif
  67:Drivers/CMSIS/Include/cmsis_gcc.h **** #ifndef   __PACKED_UNION
  68:Drivers/CMSIS/Include/cmsis_gcc.h ****   #define __PACKED_UNION                         union __attribute__((packed, aligned(1)))
  69:Drivers/CMSIS/Include/cmsis_gcc.h **** #endif
  70:Drivers/CMSIS/Include/cmsis_gcc.h **** #ifndef   __UNALIGNED_UINT32        /* deprecated */
  71:Drivers/CMSIS/Include/cmsis_gcc.h ****   #pragma GCC diagnostic push
  72:Drivers/CMSIS/Include/cmsis_gcc.h ****   #pragma GCC diagnostic ignored "-Wpacked"
  73:Drivers/CMSIS/Include/cmsis_gcc.h ****   #pragma GCC diagnostic ignored "-Wattributes"
  74:Drivers/CMSIS/Include/cmsis_gcc.h ****   struct __attribute__((packed)) T_UINT32 { uint32_t v; };
  75:Drivers/CMSIS/Include/cmsis_gcc.h ****   #pragma GCC diagnostic pop
  76:Drivers/CMSIS/Include/cmsis_gcc.h ****   #define __UNALIGNED_UINT32(x)                  (((struct T_UINT32 *)(x))->v)
  77:Drivers/CMSIS/Include/cmsis_gcc.h **** #endif
  78:Drivers/CMSIS/Include/cmsis_gcc.h **** #ifndef   __UNALIGNED_UINT16_WRITE
  79:Drivers/CMSIS/Include/cmsis_gcc.h ****   #pragma GCC diagnostic push
  80:Drivers/CMSIS/Include/cmsis_gcc.h ****   #pragma GCC diagnostic ignored "-Wpacked"
  81:Drivers/CMSIS/Include/cmsis_gcc.h ****   #pragma GCC diagnostic ignored "-Wattributes"
  82:Drivers/CMSIS/Include/cmsis_gcc.h ****   __PACKED_STRUCT T_UINT16_WRITE { uint16_t v; };
  83:Drivers/CMSIS/Include/cmsis_gcc.h ****   #pragma GCC diagnostic pop
  84:Drivers/CMSIS/Include/cmsis_gcc.h ****   #define __UNALIGNED_UINT16_WRITE(addr, val)    (void)((((struct T_UINT16_WRITE *)(void *)(addr))-
  85:Drivers/CMSIS/Include/cmsis_gcc.h **** #endif
  86:Drivers/CMSIS/Include/cmsis_gcc.h **** #ifndef   __UNALIGNED_UINT16_READ
  87:Drivers/CMSIS/Include/cmsis_gcc.h ****   #pragma GCC diagnostic push
  88:Drivers/CMSIS/Include/cmsis_gcc.h ****   #pragma GCC diagnostic ignored "-Wpacked"
  89:Drivers/CMSIS/Include/cmsis_gcc.h ****   #pragma GCC diagnostic ignored "-Wattributes"
  90:Drivers/CMSIS/Include/cmsis_gcc.h ****   __PACKED_STRUCT T_UINT16_READ { uint16_t v; };
  91:Drivers/CMSIS/Include/cmsis_gcc.h ****   #pragma GCC diagnostic pop
  92:Drivers/CMSIS/Include/cmsis_gcc.h ****   #define __UNALIGNED_UINT16_READ(addr)          (((const struct T_UINT16_READ *)(const void *)(add
  93:Drivers/CMSIS/Include/cmsis_gcc.h **** #endif
  94:Drivers/CMSIS/Include/cmsis_gcc.h **** #ifndef   __UNALIGNED_UINT32_WRITE
  95:Drivers/CMSIS/Include/cmsis_gcc.h ****   #pragma GCC diagnostic push
  96:Drivers/CMSIS/Include/cmsis_gcc.h ****   #pragma GCC diagnostic ignored "-Wpacked"
  97:Drivers/CMSIS/Include/cmsis_gcc.h ****   #pragma GCC diagnostic ignored "-Wattributes"
  98:Drivers/CMSIS/Include/cmsis_gcc.h ****   __PACKED_STRUCT T_UINT32_WRITE { uint32_t v; };
  99:Drivers/CMSIS/Include/cmsis_gcc.h ****   #pragma GCC diagnostic pop
 100:Drivers/CMSIS/Include/cmsis_gcc.h ****   #define __UNALIGNED_UINT32_WRITE(addr, val)    (void)((((struct T_UINT32_WRITE *)(void *)(addr))-
 101:Drivers/CMSIS/Include/cmsis_gcc.h **** #endif
 102:Drivers/CMSIS/Include/cmsis_gcc.h **** #ifndef   __UNALIGNED_UINT32_READ
 103:Drivers/CMSIS/Include/cmsis_gcc.h ****   #pragma GCC diagnostic push
 104:Drivers/CMSIS/Include/cmsis_gcc.h ****   #pragma GCC diagnostic ignored "-Wpacked"
 105:Drivers/CMSIS/Include/cmsis_gcc.h ****   #pragma GCC diagnostic ignored "-Wattributes"
 106:Drivers/CMSIS/Include/cmsis_gcc.h ****   __PACKED_STRUCT T_UINT32_READ { uint32_t v; };
 107:Drivers/CMSIS/Include/cmsis_gcc.h ****   #pragma GCC diagnostic pop
 108:Drivers/CMSIS/Include/cmsis_gcc.h ****   #define __UNALIGNED_UINT32_READ(addr)          (((const struct T_UINT32_READ *)(const void *)(add
 109:Drivers/CMSIS/Include/cmsis_gcc.h **** #endif
 110:Drivers/CMSIS/Include/cmsis_gcc.h **** #ifndef   __ALIGNED
 111:Drivers/CMSIS/Include/cmsis_gcc.h ****   #define __ALIGNED(x)                           __attribute__((aligned(x)))
 112:Drivers/CMSIS/Include/cmsis_gcc.h **** #endif
 113:Drivers/CMSIS/Include/cmsis_gcc.h **** #ifndef   __RESTRICT
 114:Drivers/CMSIS/Include/cmsis_gcc.h ****   #define __RESTRICT                             __restrict
 115:Drivers/CMSIS/Include/cmsis_gcc.h **** #endif
 116:Drivers/CMSIS/Include/cmsis_gcc.h **** #ifndef   __COMPILER_BARRIER
 117:Drivers/CMSIS/Include/cmsis_gcc.h ****   #define __COMPILER_BARRIER()                   __ASM volatile("":::"memory")
 118:Drivers/CMSIS/Include/cmsis_gcc.h **** #endif
 119:Drivers/CMSIS/Include/cmsis_gcc.h **** 
ARM GAS  C:\Users\3kb\AppData\Local\Temp\ccoOmmoe.s 			page 7


 120:Drivers/CMSIS/Include/cmsis_gcc.h **** /* #########################  Startup and Lowlevel Init  ######################## */
 121:Drivers/CMSIS/Include/cmsis_gcc.h **** 
 122:Drivers/CMSIS/Include/cmsis_gcc.h **** #ifndef __PROGRAM_START
 123:Drivers/CMSIS/Include/cmsis_gcc.h **** 
 124:Drivers/CMSIS/Include/cmsis_gcc.h **** /**
 125:Drivers/CMSIS/Include/cmsis_gcc.h ****   \brief   Initializes data and bss sections
 126:Drivers/CMSIS/Include/cmsis_gcc.h ****   \details This default implementations initialized all data and additional bss
 127:Drivers/CMSIS/Include/cmsis_gcc.h ****            sections relying on .copy.table and .zero.table specified properly
 128:Drivers/CMSIS/Include/cmsis_gcc.h ****            in the used linker script.
 129:Drivers/CMSIS/Include/cmsis_gcc.h **** 
 130:Drivers/CMSIS/Include/cmsis_gcc.h ****  */
 131:Drivers/CMSIS/Include/cmsis_gcc.h **** __STATIC_FORCEINLINE __NO_RETURN void __cmsis_start(void)
 132:Drivers/CMSIS/Include/cmsis_gcc.h **** {
 133:Drivers/CMSIS/Include/cmsis_gcc.h ****   extern void _start(void) __NO_RETURN;
 134:Drivers/CMSIS/Include/cmsis_gcc.h **** 
 135:Drivers/CMSIS/Include/cmsis_gcc.h ****   typedef struct {
 136:Drivers/CMSIS/Include/cmsis_gcc.h ****     uint32_t const* src;
 137:Drivers/CMSIS/Include/cmsis_gcc.h ****     uint32_t* dest;
 138:Drivers/CMSIS/Include/cmsis_gcc.h ****     uint32_t  wlen;
 139:Drivers/CMSIS/Include/cmsis_gcc.h ****   } __copy_table_t;
 140:Drivers/CMSIS/Include/cmsis_gcc.h **** 
 141:Drivers/CMSIS/Include/cmsis_gcc.h ****   typedef struct {
 142:Drivers/CMSIS/Include/cmsis_gcc.h ****     uint32_t* dest;
 143:Drivers/CMSIS/Include/cmsis_gcc.h ****     uint32_t  wlen;
 144:Drivers/CMSIS/Include/cmsis_gcc.h ****   } __zero_table_t;
 145:Drivers/CMSIS/Include/cmsis_gcc.h **** 
 146:Drivers/CMSIS/Include/cmsis_gcc.h ****   extern const __copy_table_t __copy_table_start__;
 147:Drivers/CMSIS/Include/cmsis_gcc.h ****   extern const __copy_table_t __copy_table_end__;
 148:Drivers/CMSIS/Include/cmsis_gcc.h ****   extern const __zero_table_t __zero_table_start__;
 149:Drivers/CMSIS/Include/cmsis_gcc.h ****   extern const __zero_table_t __zero_table_end__;
 150:Drivers/CMSIS/Include/cmsis_gcc.h **** 
 151:Drivers/CMSIS/Include/cmsis_gcc.h ****   for (__copy_table_t const* pTable = &__copy_table_start__; pTable < &__copy_table_end__; ++pTable
 152:Drivers/CMSIS/Include/cmsis_gcc.h ****     for(uint32_t i=0u; i<pTable->wlen; ++i) {
 153:Drivers/CMSIS/Include/cmsis_gcc.h ****       pTable->dest[i] = pTable->src[i];
 154:Drivers/CMSIS/Include/cmsis_gcc.h ****     }
 155:Drivers/CMSIS/Include/cmsis_gcc.h ****   }
 156:Drivers/CMSIS/Include/cmsis_gcc.h **** 
 157:Drivers/CMSIS/Include/cmsis_gcc.h ****   for (__zero_table_t const* pTable = &__zero_table_start__; pTable < &__zero_table_end__; ++pTable
 158:Drivers/CMSIS/Include/cmsis_gcc.h ****     for(uint32_t i=0u; i<pTable->wlen; ++i) {
 159:Drivers/CMSIS/Include/cmsis_gcc.h ****       pTable->dest[i] = 0u;
 160:Drivers/CMSIS/Include/cmsis_gcc.h ****     }
 161:Drivers/CMSIS/Include/cmsis_gcc.h ****   }
 162:Drivers/CMSIS/Include/cmsis_gcc.h **** 
 163:Drivers/CMSIS/Include/cmsis_gcc.h ****   _start();
 164:Drivers/CMSIS/Include/cmsis_gcc.h **** }
 165:Drivers/CMSIS/Include/cmsis_gcc.h **** 
 166:Drivers/CMSIS/Include/cmsis_gcc.h **** #define __PROGRAM_START           __cmsis_start
 167:Drivers/CMSIS/Include/cmsis_gcc.h **** #endif
 168:Drivers/CMSIS/Include/cmsis_gcc.h **** 
 169:Drivers/CMSIS/Include/cmsis_gcc.h **** #ifndef __INITIAL_SP
 170:Drivers/CMSIS/Include/cmsis_gcc.h **** #define __INITIAL_SP              __StackTop
 171:Drivers/CMSIS/Include/cmsis_gcc.h **** #endif
 172:Drivers/CMSIS/Include/cmsis_gcc.h **** 
 173:Drivers/CMSIS/Include/cmsis_gcc.h **** #ifndef __STACK_LIMIT
 174:Drivers/CMSIS/Include/cmsis_gcc.h **** #define __STACK_LIMIT             __StackLimit
 175:Drivers/CMSIS/Include/cmsis_gcc.h **** #endif
 176:Drivers/CMSIS/Include/cmsis_gcc.h **** 
ARM GAS  C:\Users\3kb\AppData\Local\Temp\ccoOmmoe.s 			page 8


 177:Drivers/CMSIS/Include/cmsis_gcc.h **** #ifndef __VECTOR_TABLE
 178:Drivers/CMSIS/Include/cmsis_gcc.h **** #define __VECTOR_TABLE            __Vectors
 179:Drivers/CMSIS/Include/cmsis_gcc.h **** #endif
 180:Drivers/CMSIS/Include/cmsis_gcc.h **** 
 181:Drivers/CMSIS/Include/cmsis_gcc.h **** #ifndef __VECTOR_TABLE_ATTRIBUTE
 182:Drivers/CMSIS/Include/cmsis_gcc.h **** #define __VECTOR_TABLE_ATTRIBUTE  __attribute__((used, section(".vectors")))
 183:Drivers/CMSIS/Include/cmsis_gcc.h **** #endif
 184:Drivers/CMSIS/Include/cmsis_gcc.h **** 
 185:Drivers/CMSIS/Include/cmsis_gcc.h **** #if defined (__ARM_FEATURE_CMSE) && (__ARM_FEATURE_CMSE == 3U)
 186:Drivers/CMSIS/Include/cmsis_gcc.h **** #ifndef __STACK_SEAL
 187:Drivers/CMSIS/Include/cmsis_gcc.h **** #define __STACK_SEAL              __StackSeal
 188:Drivers/CMSIS/Include/cmsis_gcc.h **** #endif
 189:Drivers/CMSIS/Include/cmsis_gcc.h **** 
 190:Drivers/CMSIS/Include/cmsis_gcc.h **** #ifndef __TZ_STACK_SEAL_SIZE
 191:Drivers/CMSIS/Include/cmsis_gcc.h **** #define __TZ_STACK_SEAL_SIZE      8U
 192:Drivers/CMSIS/Include/cmsis_gcc.h **** #endif
 193:Drivers/CMSIS/Include/cmsis_gcc.h **** 
 194:Drivers/CMSIS/Include/cmsis_gcc.h **** #ifndef __TZ_STACK_SEAL_VALUE
 195:Drivers/CMSIS/Include/cmsis_gcc.h **** #define __TZ_STACK_SEAL_VALUE     0xFEF5EDA5FEF5EDA5ULL
 196:Drivers/CMSIS/Include/cmsis_gcc.h **** #endif
 197:Drivers/CMSIS/Include/cmsis_gcc.h **** 
 198:Drivers/CMSIS/Include/cmsis_gcc.h **** 
 199:Drivers/CMSIS/Include/cmsis_gcc.h **** __STATIC_FORCEINLINE void __TZ_set_STACKSEAL_S (uint32_t* stackTop) {
 200:Drivers/CMSIS/Include/cmsis_gcc.h ****   *((uint64_t *)stackTop) = __TZ_STACK_SEAL_VALUE;
 201:Drivers/CMSIS/Include/cmsis_gcc.h **** }
 202:Drivers/CMSIS/Include/cmsis_gcc.h **** #endif
 203:Drivers/CMSIS/Include/cmsis_gcc.h **** 
 204:Drivers/CMSIS/Include/cmsis_gcc.h **** 
 205:Drivers/CMSIS/Include/cmsis_gcc.h **** /* ##########################  Core Instruction Access  ######################### */
 206:Drivers/CMSIS/Include/cmsis_gcc.h **** /** \defgroup CMSIS_Core_InstructionInterface CMSIS Core Instruction Interface
 207:Drivers/CMSIS/Include/cmsis_gcc.h ****   Access to dedicated instructions
 208:Drivers/CMSIS/Include/cmsis_gcc.h ****   @{
 209:Drivers/CMSIS/Include/cmsis_gcc.h **** */
 210:Drivers/CMSIS/Include/cmsis_gcc.h **** 
 211:Drivers/CMSIS/Include/cmsis_gcc.h **** /* Define macros for porting to both thumb1 and thumb2.
 212:Drivers/CMSIS/Include/cmsis_gcc.h ****  * For thumb1, use low register (r0-r7), specified by constraint "l"
 213:Drivers/CMSIS/Include/cmsis_gcc.h ****  * Otherwise, use general registers, specified by constraint "r" */
 214:Drivers/CMSIS/Include/cmsis_gcc.h **** #if defined (__thumb__) && !defined (__thumb2__)
 215:Drivers/CMSIS/Include/cmsis_gcc.h **** #define __CMSIS_GCC_OUT_REG(r) "=l" (r)
 216:Drivers/CMSIS/Include/cmsis_gcc.h **** #define __CMSIS_GCC_RW_REG(r) "+l" (r)
 217:Drivers/CMSIS/Include/cmsis_gcc.h **** #define __CMSIS_GCC_USE_REG(r) "l" (r)
 218:Drivers/CMSIS/Include/cmsis_gcc.h **** #else
 219:Drivers/CMSIS/Include/cmsis_gcc.h **** #define __CMSIS_GCC_OUT_REG(r) "=r" (r)
 220:Drivers/CMSIS/Include/cmsis_gcc.h **** #define __CMSIS_GCC_RW_REG(r) "+r" (r)
 221:Drivers/CMSIS/Include/cmsis_gcc.h **** #define __CMSIS_GCC_USE_REG(r) "r" (r)
 222:Drivers/CMSIS/Include/cmsis_gcc.h **** #endif
 223:Drivers/CMSIS/Include/cmsis_gcc.h **** 
 224:Drivers/CMSIS/Include/cmsis_gcc.h **** /**
 225:Drivers/CMSIS/Include/cmsis_gcc.h ****   \brief   No Operation
 226:Drivers/CMSIS/Include/cmsis_gcc.h ****   \details No Operation does nothing. This instruction can be used for code alignment purposes.
 227:Drivers/CMSIS/Include/cmsis_gcc.h ****  */
 228:Drivers/CMSIS/Include/cmsis_gcc.h **** #define __NOP()                             __ASM volatile ("nop")
 229:Drivers/CMSIS/Include/cmsis_gcc.h **** 
 230:Drivers/CMSIS/Include/cmsis_gcc.h **** /**
 231:Drivers/CMSIS/Include/cmsis_gcc.h ****   \brief   Wait For Interrupt
 232:Drivers/CMSIS/Include/cmsis_gcc.h ****   \details Wait For Interrupt is a hint instruction that suspends execution until one of a number o
 233:Drivers/CMSIS/Include/cmsis_gcc.h ****  */
ARM GAS  C:\Users\3kb\AppData\Local\Temp\ccoOmmoe.s 			page 9


 234:Drivers/CMSIS/Include/cmsis_gcc.h **** #define __WFI()                             __ASM volatile ("wfi":::"memory")
 235:Drivers/CMSIS/Include/cmsis_gcc.h **** 
 236:Drivers/CMSIS/Include/cmsis_gcc.h **** 
 237:Drivers/CMSIS/Include/cmsis_gcc.h **** /**
 238:Drivers/CMSIS/Include/cmsis_gcc.h ****   \brief   Wait For Event
 239:Drivers/CMSIS/Include/cmsis_gcc.h ****   \details Wait For Event is a hint instruction that permits the processor to enter
 240:Drivers/CMSIS/Include/cmsis_gcc.h ****            a low-power state until one of a number of events occurs.
 241:Drivers/CMSIS/Include/cmsis_gcc.h ****  */
 242:Drivers/CMSIS/Include/cmsis_gcc.h **** #define __WFE()                             __ASM volatile ("wfe":::"memory")
 243:Drivers/CMSIS/Include/cmsis_gcc.h **** 
 244:Drivers/CMSIS/Include/cmsis_gcc.h **** 
 245:Drivers/CMSIS/Include/cmsis_gcc.h **** /**
 246:Drivers/CMSIS/Include/cmsis_gcc.h ****   \brief   Send Event
 247:Drivers/CMSIS/Include/cmsis_gcc.h ****   \details Send Event is a hint instruction. It causes an event to be signaled to the CPU.
 248:Drivers/CMSIS/Include/cmsis_gcc.h ****  */
 249:Drivers/CMSIS/Include/cmsis_gcc.h **** #define __SEV()                             __ASM volatile ("sev")
 250:Drivers/CMSIS/Include/cmsis_gcc.h **** 
 251:Drivers/CMSIS/Include/cmsis_gcc.h **** 
 252:Drivers/CMSIS/Include/cmsis_gcc.h **** /**
 253:Drivers/CMSIS/Include/cmsis_gcc.h ****   \brief   Instruction Synchronization Barrier
 254:Drivers/CMSIS/Include/cmsis_gcc.h ****   \details Instruction Synchronization Barrier flushes the pipeline in the processor,
 255:Drivers/CMSIS/Include/cmsis_gcc.h ****            so that all instructions following the ISB are fetched from cache or memory,
 256:Drivers/CMSIS/Include/cmsis_gcc.h ****            after the instruction has been completed.
 257:Drivers/CMSIS/Include/cmsis_gcc.h ****  */
 258:Drivers/CMSIS/Include/cmsis_gcc.h **** __STATIC_FORCEINLINE void __ISB(void)
 259:Drivers/CMSIS/Include/cmsis_gcc.h **** {
 260:Drivers/CMSIS/Include/cmsis_gcc.h ****   __ASM volatile ("isb 0xF":::"memory");
 261:Drivers/CMSIS/Include/cmsis_gcc.h **** }
 262:Drivers/CMSIS/Include/cmsis_gcc.h **** 
 263:Drivers/CMSIS/Include/cmsis_gcc.h **** 
 264:Drivers/CMSIS/Include/cmsis_gcc.h **** /**
 265:Drivers/CMSIS/Include/cmsis_gcc.h ****   \brief   Data Synchronization Barrier
 266:Drivers/CMSIS/Include/cmsis_gcc.h ****   \details Acts as a special kind of Data Memory Barrier.
 267:Drivers/CMSIS/Include/cmsis_gcc.h ****            It completes when all explicit memory accesses before this instruction complete.
 268:Drivers/CMSIS/Include/cmsis_gcc.h ****  */
 269:Drivers/CMSIS/Include/cmsis_gcc.h **** __STATIC_FORCEINLINE void __DSB(void)
 270:Drivers/CMSIS/Include/cmsis_gcc.h **** {
 271:Drivers/CMSIS/Include/cmsis_gcc.h ****   __ASM volatile ("dsb 0xF":::"memory");
 272:Drivers/CMSIS/Include/cmsis_gcc.h **** }
 273:Drivers/CMSIS/Include/cmsis_gcc.h **** 
 274:Drivers/CMSIS/Include/cmsis_gcc.h **** 
 275:Drivers/CMSIS/Include/cmsis_gcc.h **** /**
 276:Drivers/CMSIS/Include/cmsis_gcc.h ****   \brief   Data Memory Barrier
 277:Drivers/CMSIS/Include/cmsis_gcc.h ****   \details Ensures the apparent order of the explicit memory operations before
 278:Drivers/CMSIS/Include/cmsis_gcc.h ****            and after the instruction, without ensuring their completion.
 279:Drivers/CMSIS/Include/cmsis_gcc.h ****  */
 280:Drivers/CMSIS/Include/cmsis_gcc.h **** __STATIC_FORCEINLINE void __DMB(void)
 281:Drivers/CMSIS/Include/cmsis_gcc.h **** {
 282:Drivers/CMSIS/Include/cmsis_gcc.h ****   __ASM volatile ("dmb 0xF":::"memory");
 283:Drivers/CMSIS/Include/cmsis_gcc.h **** }
 284:Drivers/CMSIS/Include/cmsis_gcc.h **** 
 285:Drivers/CMSIS/Include/cmsis_gcc.h **** 
 286:Drivers/CMSIS/Include/cmsis_gcc.h **** /**
 287:Drivers/CMSIS/Include/cmsis_gcc.h ****   \brief   Reverse byte order (32 bit)
 288:Drivers/CMSIS/Include/cmsis_gcc.h ****   \details Reverses the byte order in unsigned integer value. For example, 0x12345678 becomes 0x785
 289:Drivers/CMSIS/Include/cmsis_gcc.h ****   \param [in]    value  Value to reverse
 290:Drivers/CMSIS/Include/cmsis_gcc.h ****   \return               Reversed value
ARM GAS  C:\Users\3kb\AppData\Local\Temp\ccoOmmoe.s 			page 10


 291:Drivers/CMSIS/Include/cmsis_gcc.h ****  */
 292:Drivers/CMSIS/Include/cmsis_gcc.h **** __STATIC_FORCEINLINE uint32_t __REV(uint32_t value)
 293:Drivers/CMSIS/Include/cmsis_gcc.h **** {
 294:Drivers/CMSIS/Include/cmsis_gcc.h **** #if (__GNUC__ > 4) || (__GNUC__ == 4 && __GNUC_MINOR__ >= 5)
 295:Drivers/CMSIS/Include/cmsis_gcc.h ****   return __builtin_bswap32(value);
 296:Drivers/CMSIS/Include/cmsis_gcc.h **** #else
 297:Drivers/CMSIS/Include/cmsis_gcc.h ****   uint32_t result;
 298:Drivers/CMSIS/Include/cmsis_gcc.h **** 
 299:Drivers/CMSIS/Include/cmsis_gcc.h ****   __ASM ("rev %0, %1" : __CMSIS_GCC_OUT_REG (result) : __CMSIS_GCC_USE_REG (value) );
 300:Drivers/CMSIS/Include/cmsis_gcc.h ****   return result;
 301:Drivers/CMSIS/Include/cmsis_gcc.h **** #endif
 302:Drivers/CMSIS/Include/cmsis_gcc.h **** }
 303:Drivers/CMSIS/Include/cmsis_gcc.h **** 
 304:Drivers/CMSIS/Include/cmsis_gcc.h **** 
 305:Drivers/CMSIS/Include/cmsis_gcc.h **** /**
 306:Drivers/CMSIS/Include/cmsis_gcc.h ****   \brief   Reverse byte order (16 bit)
 307:Drivers/CMSIS/Include/cmsis_gcc.h ****   \details Reverses the byte order within each halfword of a word. For example, 0x12345678 becomes 
 308:Drivers/CMSIS/Include/cmsis_gcc.h ****   \param [in]    value  Value to reverse
 309:Drivers/CMSIS/Include/cmsis_gcc.h ****   \return               Reversed value
 310:Drivers/CMSIS/Include/cmsis_gcc.h ****  */
 311:Drivers/CMSIS/Include/cmsis_gcc.h **** __STATIC_FORCEINLINE uint32_t __REV16(uint32_t value)
 312:Drivers/CMSIS/Include/cmsis_gcc.h **** {
 313:Drivers/CMSIS/Include/cmsis_gcc.h ****   uint32_t result;
 314:Drivers/CMSIS/Include/cmsis_gcc.h **** 
 315:Drivers/CMSIS/Include/cmsis_gcc.h ****   __ASM ("rev16 %0, %1" : __CMSIS_GCC_OUT_REG (result) : __CMSIS_GCC_USE_REG (value) );
 316:Drivers/CMSIS/Include/cmsis_gcc.h ****   return result;
 317:Drivers/CMSIS/Include/cmsis_gcc.h **** }
 318:Drivers/CMSIS/Include/cmsis_gcc.h **** 
 319:Drivers/CMSIS/Include/cmsis_gcc.h **** 
 320:Drivers/CMSIS/Include/cmsis_gcc.h **** /**
 321:Drivers/CMSIS/Include/cmsis_gcc.h ****   \brief   Reverse byte order (16 bit)
 322:Drivers/CMSIS/Include/cmsis_gcc.h ****   \details Reverses the byte order in a 16-bit value and returns the signed 16-bit result. For exam
 323:Drivers/CMSIS/Include/cmsis_gcc.h ****   \param [in]    value  Value to reverse
 324:Drivers/CMSIS/Include/cmsis_gcc.h ****   \return               Reversed value
 325:Drivers/CMSIS/Include/cmsis_gcc.h ****  */
 326:Drivers/CMSIS/Include/cmsis_gcc.h **** __STATIC_FORCEINLINE int16_t __REVSH(int16_t value)
 327:Drivers/CMSIS/Include/cmsis_gcc.h **** {
 328:Drivers/CMSIS/Include/cmsis_gcc.h **** #if (__GNUC__ > 4) || (__GNUC__ == 4 && __GNUC_MINOR__ >= 8)
 329:Drivers/CMSIS/Include/cmsis_gcc.h ****   return (int16_t)__builtin_bswap16(value);
 330:Drivers/CMSIS/Include/cmsis_gcc.h **** #else
 331:Drivers/CMSIS/Include/cmsis_gcc.h ****   int16_t result;
 332:Drivers/CMSIS/Include/cmsis_gcc.h **** 
 333:Drivers/CMSIS/Include/cmsis_gcc.h ****   __ASM ("revsh %0, %1" : __CMSIS_GCC_OUT_REG (result) : __CMSIS_GCC_USE_REG (value) );
 334:Drivers/CMSIS/Include/cmsis_gcc.h ****   return result;
 335:Drivers/CMSIS/Include/cmsis_gcc.h **** #endif
 336:Drivers/CMSIS/Include/cmsis_gcc.h **** }
 337:Drivers/CMSIS/Include/cmsis_gcc.h **** 
 338:Drivers/CMSIS/Include/cmsis_gcc.h **** 
 339:Drivers/CMSIS/Include/cmsis_gcc.h **** /**
 340:Drivers/CMSIS/Include/cmsis_gcc.h ****   \brief   Rotate Right in unsigned value (32 bit)
 341:Drivers/CMSIS/Include/cmsis_gcc.h ****   \details Rotate Right (immediate) provides the value of the contents of a register rotated by a v
 342:Drivers/CMSIS/Include/cmsis_gcc.h ****   \param [in]    op1  Value to rotate
 343:Drivers/CMSIS/Include/cmsis_gcc.h ****   \param [in]    op2  Number of Bits to rotate
 344:Drivers/CMSIS/Include/cmsis_gcc.h ****   \return               Rotated value
 345:Drivers/CMSIS/Include/cmsis_gcc.h ****  */
 346:Drivers/CMSIS/Include/cmsis_gcc.h **** __STATIC_FORCEINLINE uint32_t __ROR(uint32_t op1, uint32_t op2)
 347:Drivers/CMSIS/Include/cmsis_gcc.h **** {
ARM GAS  C:\Users\3kb\AppData\Local\Temp\ccoOmmoe.s 			page 11


 348:Drivers/CMSIS/Include/cmsis_gcc.h ****   op2 %= 32U;
 349:Drivers/CMSIS/Include/cmsis_gcc.h ****   if (op2 == 0U)
 350:Drivers/CMSIS/Include/cmsis_gcc.h ****   {
 351:Drivers/CMSIS/Include/cmsis_gcc.h ****     return op1;
 352:Drivers/CMSIS/Include/cmsis_gcc.h ****   }
 353:Drivers/CMSIS/Include/cmsis_gcc.h ****   return (op1 >> op2) | (op1 << (32U - op2));
 354:Drivers/CMSIS/Include/cmsis_gcc.h **** }
 355:Drivers/CMSIS/Include/cmsis_gcc.h **** 
 356:Drivers/CMSIS/Include/cmsis_gcc.h **** 
 357:Drivers/CMSIS/Include/cmsis_gcc.h **** /**
 358:Drivers/CMSIS/Include/cmsis_gcc.h ****   \brief   Breakpoint
 359:Drivers/CMSIS/Include/cmsis_gcc.h ****   \details Causes the processor to enter Debug state.
 360:Drivers/CMSIS/Include/cmsis_gcc.h ****            Debug tools can use this to investigate system state when the instruction at a particula
 361:Drivers/CMSIS/Include/cmsis_gcc.h ****   \param [in]    value  is ignored by the processor.
 362:Drivers/CMSIS/Include/cmsis_gcc.h ****                  If required, a debugger can use it to store additional information about the break
 363:Drivers/CMSIS/Include/cmsis_gcc.h ****  */
 364:Drivers/CMSIS/Include/cmsis_gcc.h **** #define __BKPT(value)                       __ASM volatile ("bkpt "#value)
 365:Drivers/CMSIS/Include/cmsis_gcc.h **** 
 366:Drivers/CMSIS/Include/cmsis_gcc.h **** 
 367:Drivers/CMSIS/Include/cmsis_gcc.h **** /**
 368:Drivers/CMSIS/Include/cmsis_gcc.h ****   \brief   Reverse bit order of value
 369:Drivers/CMSIS/Include/cmsis_gcc.h ****   \details Reverses the bit order of the given value.
 370:Drivers/CMSIS/Include/cmsis_gcc.h ****   \param [in]    value  Value to reverse
 371:Drivers/CMSIS/Include/cmsis_gcc.h ****   \return               Reversed value
 372:Drivers/CMSIS/Include/cmsis_gcc.h ****  */
 373:Drivers/CMSIS/Include/cmsis_gcc.h **** __STATIC_FORCEINLINE uint32_t __RBIT(uint32_t value)
 374:Drivers/CMSIS/Include/cmsis_gcc.h **** {
 375:Drivers/CMSIS/Include/cmsis_gcc.h ****   uint32_t result;
 376:Drivers/CMSIS/Include/cmsis_gcc.h **** 
 377:Drivers/CMSIS/Include/cmsis_gcc.h **** #if ((defined (__ARM_ARCH_7M__      ) && (__ARM_ARCH_7M__      == 1)) || \
 378:Drivers/CMSIS/Include/cmsis_gcc.h ****      (defined (__ARM_ARCH_7EM__     ) && (__ARM_ARCH_7EM__     == 1)) || \
 379:Drivers/CMSIS/Include/cmsis_gcc.h ****      (defined (__ARM_ARCH_8M_MAIN__ ) && (__ARM_ARCH_8M_MAIN__ == 1))    )
 380:Drivers/CMSIS/Include/cmsis_gcc.h ****    __ASM ("rbit %0, %1" : "=r" (result) : "r" (value) );
 381:Drivers/CMSIS/Include/cmsis_gcc.h **** #else
 382:Drivers/CMSIS/Include/cmsis_gcc.h ****   uint32_t s = (4U /*sizeof(v)*/ * 8U) - 1U; /* extra shift needed at end */
 383:Drivers/CMSIS/Include/cmsis_gcc.h **** 
 384:Drivers/CMSIS/Include/cmsis_gcc.h ****   result = value;                      /* r will be reversed bits of v; first get LSB of v */
 385:Drivers/CMSIS/Include/cmsis_gcc.h ****   for (value >>= 1U; value != 0U; value >>= 1U)
 386:Drivers/CMSIS/Include/cmsis_gcc.h ****   {
 387:Drivers/CMSIS/Include/cmsis_gcc.h ****     result <<= 1U;
 388:Drivers/CMSIS/Include/cmsis_gcc.h ****     result |= value & 1U;
 389:Drivers/CMSIS/Include/cmsis_gcc.h ****     s--;
 390:Drivers/CMSIS/Include/cmsis_gcc.h ****   }
 391:Drivers/CMSIS/Include/cmsis_gcc.h ****   result <<= s;                        /* shift when v's highest bits are zero */
 392:Drivers/CMSIS/Include/cmsis_gcc.h **** #endif
 393:Drivers/CMSIS/Include/cmsis_gcc.h ****   return result;
 394:Drivers/CMSIS/Include/cmsis_gcc.h **** }
 395:Drivers/CMSIS/Include/cmsis_gcc.h **** 
 396:Drivers/CMSIS/Include/cmsis_gcc.h **** 
 397:Drivers/CMSIS/Include/cmsis_gcc.h **** /**
 398:Drivers/CMSIS/Include/cmsis_gcc.h ****   \brief   Count leading zeros
 399:Drivers/CMSIS/Include/cmsis_gcc.h ****   \details Counts the number of leading zeros of a data value.
 400:Drivers/CMSIS/Include/cmsis_gcc.h ****   \param [in]  value  Value to count the leading zeros
 401:Drivers/CMSIS/Include/cmsis_gcc.h ****   \return             number of leading zeros in value
 402:Drivers/CMSIS/Include/cmsis_gcc.h ****  */
 403:Drivers/CMSIS/Include/cmsis_gcc.h **** __STATIC_FORCEINLINE uint8_t __CLZ(uint32_t value)
 404:Drivers/CMSIS/Include/cmsis_gcc.h **** {
ARM GAS  C:\Users\3kb\AppData\Local\Temp\ccoOmmoe.s 			page 12


 405:Drivers/CMSIS/Include/cmsis_gcc.h ****   /* Even though __builtin_clz produces a CLZ instruction on ARM, formally
 406:Drivers/CMSIS/Include/cmsis_gcc.h ****      __builtin_clz(0) is undefined behaviour, so handle this case specially.
 407:Drivers/CMSIS/Include/cmsis_gcc.h ****      This guarantees ARM-compatible results if happening to compile on a non-ARM
 408:Drivers/CMSIS/Include/cmsis_gcc.h ****      target, and ensures the compiler doesn't decide to activate any
 409:Drivers/CMSIS/Include/cmsis_gcc.h ****      optimisations using the logic "value was passed to __builtin_clz, so it
 410:Drivers/CMSIS/Include/cmsis_gcc.h ****      is non-zero".
 411:Drivers/CMSIS/Include/cmsis_gcc.h ****      ARM GCC 7.3 and possibly earlier will optimise this test away, leaving a
 412:Drivers/CMSIS/Include/cmsis_gcc.h ****      single CLZ instruction.
 413:Drivers/CMSIS/Include/cmsis_gcc.h ****    */
 414:Drivers/CMSIS/Include/cmsis_gcc.h ****   if (value == 0U)
 415:Drivers/CMSIS/Include/cmsis_gcc.h ****   {
 416:Drivers/CMSIS/Include/cmsis_gcc.h ****     return 32U;
 417:Drivers/CMSIS/Include/cmsis_gcc.h ****   }
 418:Drivers/CMSIS/Include/cmsis_gcc.h ****   return __builtin_clz(value);
 419:Drivers/CMSIS/Include/cmsis_gcc.h **** }
 420:Drivers/CMSIS/Include/cmsis_gcc.h **** 
 421:Drivers/CMSIS/Include/cmsis_gcc.h **** 
 422:Drivers/CMSIS/Include/cmsis_gcc.h **** #if ((defined (__ARM_ARCH_7M__      ) && (__ARM_ARCH_7M__      == 1)) || \
 423:Drivers/CMSIS/Include/cmsis_gcc.h ****      (defined (__ARM_ARCH_7EM__     ) && (__ARM_ARCH_7EM__     == 1)) || \
 424:Drivers/CMSIS/Include/cmsis_gcc.h ****      (defined (__ARM_ARCH_8M_MAIN__ ) && (__ARM_ARCH_8M_MAIN__ == 1)) || \
 425:Drivers/CMSIS/Include/cmsis_gcc.h ****      (defined (__ARM_ARCH_8M_BASE__ ) && (__ARM_ARCH_8M_BASE__ == 1))    )
 426:Drivers/CMSIS/Include/cmsis_gcc.h **** /**
 427:Drivers/CMSIS/Include/cmsis_gcc.h ****   \brief   LDR Exclusive (8 bit)
 428:Drivers/CMSIS/Include/cmsis_gcc.h ****   \details Executes a exclusive LDR instruction for 8 bit value.
 429:Drivers/CMSIS/Include/cmsis_gcc.h ****   \param [in]    ptr  Pointer to data
 430:Drivers/CMSIS/Include/cmsis_gcc.h ****   \return             value of type uint8_t at (*ptr)
 431:Drivers/CMSIS/Include/cmsis_gcc.h ****  */
 432:Drivers/CMSIS/Include/cmsis_gcc.h **** __STATIC_FORCEINLINE uint8_t __LDREXB(volatile uint8_t *addr)
 433:Drivers/CMSIS/Include/cmsis_gcc.h **** {
 434:Drivers/CMSIS/Include/cmsis_gcc.h ****     uint32_t result;
 435:Drivers/CMSIS/Include/cmsis_gcc.h **** 
 436:Drivers/CMSIS/Include/cmsis_gcc.h **** #if (__GNUC__ > 4) || (__GNUC__ == 4 && __GNUC_MINOR__ >= 8)
 437:Drivers/CMSIS/Include/cmsis_gcc.h ****    __ASM volatile ("ldrexb %0, %1" : "=r" (result) : "Q" (*addr) );
 438:Drivers/CMSIS/Include/cmsis_gcc.h **** #else
 439:Drivers/CMSIS/Include/cmsis_gcc.h ****     /* Prior to GCC 4.8, "Q" will be expanded to [rx, #0] which is not
 440:Drivers/CMSIS/Include/cmsis_gcc.h ****        accepted by assembler. So has to use following less efficient pattern.
 441:Drivers/CMSIS/Include/cmsis_gcc.h ****     */
 442:Drivers/CMSIS/Include/cmsis_gcc.h ****    __ASM volatile ("ldrexb %0, [%1]" : "=r" (result) : "r" (addr) : "memory" );
 443:Drivers/CMSIS/Include/cmsis_gcc.h **** #endif
 444:Drivers/CMSIS/Include/cmsis_gcc.h ****    return ((uint8_t) result);    /* Add explicit type cast here */
 445:Drivers/CMSIS/Include/cmsis_gcc.h **** }
 446:Drivers/CMSIS/Include/cmsis_gcc.h **** 
 447:Drivers/CMSIS/Include/cmsis_gcc.h **** 
 448:Drivers/CMSIS/Include/cmsis_gcc.h **** /**
 449:Drivers/CMSIS/Include/cmsis_gcc.h ****   \brief   LDR Exclusive (16 bit)
 450:Drivers/CMSIS/Include/cmsis_gcc.h ****   \details Executes a exclusive LDR instruction for 16 bit values.
 451:Drivers/CMSIS/Include/cmsis_gcc.h ****   \param [in]    ptr  Pointer to data
 452:Drivers/CMSIS/Include/cmsis_gcc.h ****   \return        value of type uint16_t at (*ptr)
 453:Drivers/CMSIS/Include/cmsis_gcc.h ****  */
 454:Drivers/CMSIS/Include/cmsis_gcc.h **** __STATIC_FORCEINLINE uint16_t __LDREXH(volatile uint16_t *addr)
 455:Drivers/CMSIS/Include/cmsis_gcc.h **** {
 456:Drivers/CMSIS/Include/cmsis_gcc.h ****     uint32_t result;
 457:Drivers/CMSIS/Include/cmsis_gcc.h **** 
 458:Drivers/CMSIS/Include/cmsis_gcc.h **** #if (__GNUC__ > 4) || (__GNUC__ == 4 && __GNUC_MINOR__ >= 8)
 459:Drivers/CMSIS/Include/cmsis_gcc.h ****    __ASM volatile ("ldrexh %0, %1" : "=r" (result) : "Q" (*addr) );
 460:Drivers/CMSIS/Include/cmsis_gcc.h **** #else
 461:Drivers/CMSIS/Include/cmsis_gcc.h ****     /* Prior to GCC 4.8, "Q" will be expanded to [rx, #0] which is not
ARM GAS  C:\Users\3kb\AppData\Local\Temp\ccoOmmoe.s 			page 13


 462:Drivers/CMSIS/Include/cmsis_gcc.h ****        accepted by assembler. So has to use following less efficient pattern.
 463:Drivers/CMSIS/Include/cmsis_gcc.h ****     */
 464:Drivers/CMSIS/Include/cmsis_gcc.h ****    __ASM volatile ("ldrexh %0, [%1]" : "=r" (result) : "r" (addr) : "memory" );
 465:Drivers/CMSIS/Include/cmsis_gcc.h **** #endif
 466:Drivers/CMSIS/Include/cmsis_gcc.h ****    return ((uint16_t) result);    /* Add explicit type cast here */
 467:Drivers/CMSIS/Include/cmsis_gcc.h **** }
 468:Drivers/CMSIS/Include/cmsis_gcc.h **** 
 469:Drivers/CMSIS/Include/cmsis_gcc.h **** 
 470:Drivers/CMSIS/Include/cmsis_gcc.h **** /**
 471:Drivers/CMSIS/Include/cmsis_gcc.h ****   \brief   LDR Exclusive (32 bit)
 472:Drivers/CMSIS/Include/cmsis_gcc.h ****   \details Executes a exclusive LDR instruction for 32 bit values.
 473:Drivers/CMSIS/Include/cmsis_gcc.h ****   \param [in]    ptr  Pointer to data
 474:Drivers/CMSIS/Include/cmsis_gcc.h ****   \return        value of type uint32_t at (*ptr)
 475:Drivers/CMSIS/Include/cmsis_gcc.h ****  */
 476:Drivers/CMSIS/Include/cmsis_gcc.h **** __STATIC_FORCEINLINE uint32_t __LDREXW(volatile uint32_t *addr)
 477:Drivers/CMSIS/Include/cmsis_gcc.h **** {
 478:Drivers/CMSIS/Include/cmsis_gcc.h ****     uint32_t result;
 479:Drivers/CMSIS/Include/cmsis_gcc.h **** 
 480:Drivers/CMSIS/Include/cmsis_gcc.h ****    __ASM volatile ("ldrex %0, %1" : "=r" (result) : "Q" (*addr) );
 481:Drivers/CMSIS/Include/cmsis_gcc.h ****    return(result);
 482:Drivers/CMSIS/Include/cmsis_gcc.h **** }
 483:Drivers/CMSIS/Include/cmsis_gcc.h **** 
 484:Drivers/CMSIS/Include/cmsis_gcc.h **** 
 485:Drivers/CMSIS/Include/cmsis_gcc.h **** /**
 486:Drivers/CMSIS/Include/cmsis_gcc.h ****   \brief   STR Exclusive (8 bit)
 487:Drivers/CMSIS/Include/cmsis_gcc.h ****   \details Executes a exclusive STR instruction for 8 bit values.
 488:Drivers/CMSIS/Include/cmsis_gcc.h ****   \param [in]  value  Value to store
 489:Drivers/CMSIS/Include/cmsis_gcc.h ****   \param [in]    ptr  Pointer to location
 490:Drivers/CMSIS/Include/cmsis_gcc.h ****   \return          0  Function succeeded
 491:Drivers/CMSIS/Include/cmsis_gcc.h ****   \return          1  Function failed
 492:Drivers/CMSIS/Include/cmsis_gcc.h ****  */
 493:Drivers/CMSIS/Include/cmsis_gcc.h **** __STATIC_FORCEINLINE uint32_t __STREXB(uint8_t value, volatile uint8_t *addr)
 494:Drivers/CMSIS/Include/cmsis_gcc.h **** {
 495:Drivers/CMSIS/Include/cmsis_gcc.h ****    uint32_t result;
 496:Drivers/CMSIS/Include/cmsis_gcc.h **** 
 497:Drivers/CMSIS/Include/cmsis_gcc.h ****    __ASM volatile ("strexb %0, %2, %1" : "=&r" (result), "=Q" (*addr) : "r" ((uint32_t)value) );
 498:Drivers/CMSIS/Include/cmsis_gcc.h ****    return(result);
 499:Drivers/CMSIS/Include/cmsis_gcc.h **** }
 500:Drivers/CMSIS/Include/cmsis_gcc.h **** 
 501:Drivers/CMSIS/Include/cmsis_gcc.h **** 
 502:Drivers/CMSIS/Include/cmsis_gcc.h **** /**
 503:Drivers/CMSIS/Include/cmsis_gcc.h ****   \brief   STR Exclusive (16 bit)
 504:Drivers/CMSIS/Include/cmsis_gcc.h ****   \details Executes a exclusive STR instruction for 16 bit values.
 505:Drivers/CMSIS/Include/cmsis_gcc.h ****   \param [in]  value  Value to store
 506:Drivers/CMSIS/Include/cmsis_gcc.h ****   \param [in]    ptr  Pointer to location
 507:Drivers/CMSIS/Include/cmsis_gcc.h ****   \return          0  Function succeeded
 508:Drivers/CMSIS/Include/cmsis_gcc.h ****   \return          1  Function failed
 509:Drivers/CMSIS/Include/cmsis_gcc.h ****  */
 510:Drivers/CMSIS/Include/cmsis_gcc.h **** __STATIC_FORCEINLINE uint32_t __STREXH(uint16_t value, volatile uint16_t *addr)
 511:Drivers/CMSIS/Include/cmsis_gcc.h **** {
 512:Drivers/CMSIS/Include/cmsis_gcc.h ****    uint32_t result;
 513:Drivers/CMSIS/Include/cmsis_gcc.h **** 
 514:Drivers/CMSIS/Include/cmsis_gcc.h ****    __ASM volatile ("strexh %0, %2, %1" : "=&r" (result), "=Q" (*addr) : "r" ((uint32_t)value) );
 515:Drivers/CMSIS/Include/cmsis_gcc.h ****    return(result);
 516:Drivers/CMSIS/Include/cmsis_gcc.h **** }
 517:Drivers/CMSIS/Include/cmsis_gcc.h **** 
 518:Drivers/CMSIS/Include/cmsis_gcc.h **** 
ARM GAS  C:\Users\3kb\AppData\Local\Temp\ccoOmmoe.s 			page 14


 519:Drivers/CMSIS/Include/cmsis_gcc.h **** /**
 520:Drivers/CMSIS/Include/cmsis_gcc.h ****   \brief   STR Exclusive (32 bit)
 521:Drivers/CMSIS/Include/cmsis_gcc.h ****   \details Executes a exclusive STR instruction for 32 bit values.
 522:Drivers/CMSIS/Include/cmsis_gcc.h ****   \param [in]  value  Value to store
 523:Drivers/CMSIS/Include/cmsis_gcc.h ****   \param [in]    ptr  Pointer to location
 524:Drivers/CMSIS/Include/cmsis_gcc.h ****   \return          0  Function succeeded
 525:Drivers/CMSIS/Include/cmsis_gcc.h ****   \return          1  Function failed
 526:Drivers/CMSIS/Include/cmsis_gcc.h ****  */
 527:Drivers/CMSIS/Include/cmsis_gcc.h **** __STATIC_FORCEINLINE uint32_t __STREXW(uint32_t value, volatile uint32_t *addr)
 528:Drivers/CMSIS/Include/cmsis_gcc.h **** {
 529:Drivers/CMSIS/Include/cmsis_gcc.h ****    uint32_t result;
 530:Drivers/CMSIS/Include/cmsis_gcc.h **** 
 531:Drivers/CMSIS/Include/cmsis_gcc.h ****    __ASM volatile ("strex %0, %2, %1" : "=&r" (result), "=Q" (*addr) : "r" (value) );
 532:Drivers/CMSIS/Include/cmsis_gcc.h ****    return(result);
 533:Drivers/CMSIS/Include/cmsis_gcc.h **** }
 534:Drivers/CMSIS/Include/cmsis_gcc.h **** 
 535:Drivers/CMSIS/Include/cmsis_gcc.h **** 
 536:Drivers/CMSIS/Include/cmsis_gcc.h **** /**
 537:Drivers/CMSIS/Include/cmsis_gcc.h ****   \brief   Remove the exclusive lock
 538:Drivers/CMSIS/Include/cmsis_gcc.h ****   \details Removes the exclusive lock which is created by LDREX.
 539:Drivers/CMSIS/Include/cmsis_gcc.h ****  */
 540:Drivers/CMSIS/Include/cmsis_gcc.h **** __STATIC_FORCEINLINE void __CLREX(void)
 541:Drivers/CMSIS/Include/cmsis_gcc.h **** {
 542:Drivers/CMSIS/Include/cmsis_gcc.h ****   __ASM volatile ("clrex" ::: "memory");
 543:Drivers/CMSIS/Include/cmsis_gcc.h **** }
 544:Drivers/CMSIS/Include/cmsis_gcc.h **** 
 545:Drivers/CMSIS/Include/cmsis_gcc.h **** #endif /* ((defined (__ARM_ARCH_7M__      ) && (__ARM_ARCH_7M__      == 1)) || \
 546:Drivers/CMSIS/Include/cmsis_gcc.h ****            (defined (__ARM_ARCH_7EM__     ) && (__ARM_ARCH_7EM__     == 1)) || \
 547:Drivers/CMSIS/Include/cmsis_gcc.h ****            (defined (__ARM_ARCH_8M_MAIN__ ) && (__ARM_ARCH_8M_MAIN__ == 1)) || \
 548:Drivers/CMSIS/Include/cmsis_gcc.h ****            (defined (__ARM_ARCH_8M_BASE__ ) && (__ARM_ARCH_8M_BASE__ == 1))    ) */
 549:Drivers/CMSIS/Include/cmsis_gcc.h **** 
 550:Drivers/CMSIS/Include/cmsis_gcc.h **** 
 551:Drivers/CMSIS/Include/cmsis_gcc.h **** #if ((defined (__ARM_ARCH_7M__      ) && (__ARM_ARCH_7M__      == 1)) || \
 552:Drivers/CMSIS/Include/cmsis_gcc.h ****      (defined (__ARM_ARCH_7EM__     ) && (__ARM_ARCH_7EM__     == 1)) || \
 553:Drivers/CMSIS/Include/cmsis_gcc.h ****      (defined (__ARM_ARCH_8M_MAIN__ ) && (__ARM_ARCH_8M_MAIN__ == 1))    )
 554:Drivers/CMSIS/Include/cmsis_gcc.h **** /**
 555:Drivers/CMSIS/Include/cmsis_gcc.h ****   \brief   Signed Saturate
 556:Drivers/CMSIS/Include/cmsis_gcc.h ****   \details Saturates a signed value.
 557:Drivers/CMSIS/Include/cmsis_gcc.h ****   \param [in]  ARG1  Value to be saturated
 558:Drivers/CMSIS/Include/cmsis_gcc.h ****   \param [in]  ARG2  Bit position to saturate to (1..32)
 559:Drivers/CMSIS/Include/cmsis_gcc.h ****   \return             Saturated value
 560:Drivers/CMSIS/Include/cmsis_gcc.h ****  */
 561:Drivers/CMSIS/Include/cmsis_gcc.h **** #define __SSAT(ARG1, ARG2) \
 562:Drivers/CMSIS/Include/cmsis_gcc.h **** __extension__ \
 563:Drivers/CMSIS/Include/cmsis_gcc.h **** ({                          \
 564:Drivers/CMSIS/Include/cmsis_gcc.h ****   int32_t __RES, __ARG1 = (ARG1); \
 565:Drivers/CMSIS/Include/cmsis_gcc.h ****   __ASM volatile ("ssat %0, %1, %2" : "=r" (__RES) :  "I" (ARG2), "r" (__ARG1) : "cc" ); \
 566:Drivers/CMSIS/Include/cmsis_gcc.h ****   __RES; \
 567:Drivers/CMSIS/Include/cmsis_gcc.h ****  })
 568:Drivers/CMSIS/Include/cmsis_gcc.h **** 
 569:Drivers/CMSIS/Include/cmsis_gcc.h **** 
 570:Drivers/CMSIS/Include/cmsis_gcc.h **** /**
 571:Drivers/CMSIS/Include/cmsis_gcc.h ****   \brief   Unsigned Saturate
 572:Drivers/CMSIS/Include/cmsis_gcc.h ****   \details Saturates an unsigned value.
 573:Drivers/CMSIS/Include/cmsis_gcc.h ****   \param [in]  ARG1  Value to be saturated
 574:Drivers/CMSIS/Include/cmsis_gcc.h ****   \param [in]  ARG2  Bit position to saturate to (0..31)
 575:Drivers/CMSIS/Include/cmsis_gcc.h ****   \return             Saturated value
ARM GAS  C:\Users\3kb\AppData\Local\Temp\ccoOmmoe.s 			page 15


 576:Drivers/CMSIS/Include/cmsis_gcc.h ****  */
 577:Drivers/CMSIS/Include/cmsis_gcc.h **** #define __USAT(ARG1, ARG2) \
 578:Drivers/CMSIS/Include/cmsis_gcc.h **** __extension__ \
 579:Drivers/CMSIS/Include/cmsis_gcc.h **** ({                          \
 580:Drivers/CMSIS/Include/cmsis_gcc.h ****   uint32_t __RES, __ARG1 = (ARG1); \
 581:Drivers/CMSIS/Include/cmsis_gcc.h ****   __ASM volatile ("usat %0, %1, %2" : "=r" (__RES) :  "I" (ARG2), "r" (__ARG1) : "cc" ); \
 582:Drivers/CMSIS/Include/cmsis_gcc.h ****   __RES; \
 583:Drivers/CMSIS/Include/cmsis_gcc.h ****  })
 584:Drivers/CMSIS/Include/cmsis_gcc.h **** 
 585:Drivers/CMSIS/Include/cmsis_gcc.h **** 
 586:Drivers/CMSIS/Include/cmsis_gcc.h **** /**
 587:Drivers/CMSIS/Include/cmsis_gcc.h ****   \brief   Rotate Right with Extend (32 bit)
 588:Drivers/CMSIS/Include/cmsis_gcc.h ****   \details Moves each bit of a bitstring right by one bit.
 589:Drivers/CMSIS/Include/cmsis_gcc.h ****            The carry input is shifted in at the left end of the bitstring.
 590:Drivers/CMSIS/Include/cmsis_gcc.h ****   \param [in]    value  Value to rotate
 591:Drivers/CMSIS/Include/cmsis_gcc.h ****   \return               Rotated value
 592:Drivers/CMSIS/Include/cmsis_gcc.h ****  */
 593:Drivers/CMSIS/Include/cmsis_gcc.h **** __STATIC_FORCEINLINE uint32_t __RRX(uint32_t value)
 594:Drivers/CMSIS/Include/cmsis_gcc.h **** {
 595:Drivers/CMSIS/Include/cmsis_gcc.h ****   uint32_t result;
 596:Drivers/CMSIS/Include/cmsis_gcc.h **** 
 597:Drivers/CMSIS/Include/cmsis_gcc.h ****   __ASM volatile ("rrx %0, %1" : __CMSIS_GCC_OUT_REG (result) : __CMSIS_GCC_USE_REG (value) );
 598:Drivers/CMSIS/Include/cmsis_gcc.h ****   return(result);
 599:Drivers/CMSIS/Include/cmsis_gcc.h **** }
 600:Drivers/CMSIS/Include/cmsis_gcc.h **** 
 601:Drivers/CMSIS/Include/cmsis_gcc.h **** 
 602:Drivers/CMSIS/Include/cmsis_gcc.h **** /**
 603:Drivers/CMSIS/Include/cmsis_gcc.h ****   \brief   LDRT Unprivileged (8 bit)
 604:Drivers/CMSIS/Include/cmsis_gcc.h ****   \details Executes a Unprivileged LDRT instruction for 8 bit value.
 605:Drivers/CMSIS/Include/cmsis_gcc.h ****   \param [in]    ptr  Pointer to data
 606:Drivers/CMSIS/Include/cmsis_gcc.h ****   \return             value of type uint8_t at (*ptr)
 607:Drivers/CMSIS/Include/cmsis_gcc.h ****  */
 608:Drivers/CMSIS/Include/cmsis_gcc.h **** __STATIC_FORCEINLINE uint8_t __LDRBT(volatile uint8_t *ptr)
 609:Drivers/CMSIS/Include/cmsis_gcc.h **** {
 610:Drivers/CMSIS/Include/cmsis_gcc.h ****     uint32_t result;
 611:Drivers/CMSIS/Include/cmsis_gcc.h **** 
 612:Drivers/CMSIS/Include/cmsis_gcc.h **** #if (__GNUC__ > 4) || (__GNUC__ == 4 && __GNUC_MINOR__ >= 8)
 613:Drivers/CMSIS/Include/cmsis_gcc.h ****    __ASM volatile ("ldrbt %0, %1" : "=r" (result) : "Q" (*ptr) );
 614:Drivers/CMSIS/Include/cmsis_gcc.h **** #else
 615:Drivers/CMSIS/Include/cmsis_gcc.h ****     /* Prior to GCC 4.8, "Q" will be expanded to [rx, #0] which is not
 616:Drivers/CMSIS/Include/cmsis_gcc.h ****        accepted by assembler. So has to use following less efficient pattern.
 617:Drivers/CMSIS/Include/cmsis_gcc.h ****     */
 618:Drivers/CMSIS/Include/cmsis_gcc.h ****    __ASM volatile ("ldrbt %0, [%1]" : "=r" (result) : "r" (ptr) : "memory" );
 619:Drivers/CMSIS/Include/cmsis_gcc.h **** #endif
 620:Drivers/CMSIS/Include/cmsis_gcc.h ****    return ((uint8_t) result);    /* Add explicit type cast here */
 621:Drivers/CMSIS/Include/cmsis_gcc.h **** }
 622:Drivers/CMSIS/Include/cmsis_gcc.h **** 
 623:Drivers/CMSIS/Include/cmsis_gcc.h **** 
 624:Drivers/CMSIS/Include/cmsis_gcc.h **** /**
 625:Drivers/CMSIS/Include/cmsis_gcc.h ****   \brief   LDRT Unprivileged (16 bit)
 626:Drivers/CMSIS/Include/cmsis_gcc.h ****   \details Executes a Unprivileged LDRT instruction for 16 bit values.
 627:Drivers/CMSIS/Include/cmsis_gcc.h ****   \param [in]    ptr  Pointer to data
 628:Drivers/CMSIS/Include/cmsis_gcc.h ****   \return        value of type uint16_t at (*ptr)
 629:Drivers/CMSIS/Include/cmsis_gcc.h ****  */
 630:Drivers/CMSIS/Include/cmsis_gcc.h **** __STATIC_FORCEINLINE uint16_t __LDRHT(volatile uint16_t *ptr)
 631:Drivers/CMSIS/Include/cmsis_gcc.h **** {
 632:Drivers/CMSIS/Include/cmsis_gcc.h ****     uint32_t result;
ARM GAS  C:\Users\3kb\AppData\Local\Temp\ccoOmmoe.s 			page 16


 633:Drivers/CMSIS/Include/cmsis_gcc.h **** 
 634:Drivers/CMSIS/Include/cmsis_gcc.h **** #if (__GNUC__ > 4) || (__GNUC__ == 4 && __GNUC_MINOR__ >= 8)
 635:Drivers/CMSIS/Include/cmsis_gcc.h ****    __ASM volatile ("ldrht %0, %1" : "=r" (result) : "Q" (*ptr) );
 636:Drivers/CMSIS/Include/cmsis_gcc.h **** #else
 637:Drivers/CMSIS/Include/cmsis_gcc.h ****     /* Prior to GCC 4.8, "Q" will be expanded to [rx, #0] which is not
 638:Drivers/CMSIS/Include/cmsis_gcc.h ****        accepted by assembler. So has to use following less efficient pattern.
 639:Drivers/CMSIS/Include/cmsis_gcc.h ****     */
 640:Drivers/CMSIS/Include/cmsis_gcc.h ****    __ASM volatile ("ldrht %0, [%1]" : "=r" (result) : "r" (ptr) : "memory" );
 641:Drivers/CMSIS/Include/cmsis_gcc.h **** #endif
 642:Drivers/CMSIS/Include/cmsis_gcc.h ****    return ((uint16_t) result);    /* Add explicit type cast here */
 643:Drivers/CMSIS/Include/cmsis_gcc.h **** }
 644:Drivers/CMSIS/Include/cmsis_gcc.h **** 
 645:Drivers/CMSIS/Include/cmsis_gcc.h **** 
 646:Drivers/CMSIS/Include/cmsis_gcc.h **** /**
 647:Drivers/CMSIS/Include/cmsis_gcc.h ****   \brief   LDRT Unprivileged (32 bit)
 648:Drivers/CMSIS/Include/cmsis_gcc.h ****   \details Executes a Unprivileged LDRT instruction for 32 bit values.
 649:Drivers/CMSIS/Include/cmsis_gcc.h ****   \param [in]    ptr  Pointer to data
 650:Drivers/CMSIS/Include/cmsis_gcc.h ****   \return        value of type uint32_t at (*ptr)
 651:Drivers/CMSIS/Include/cmsis_gcc.h ****  */
 652:Drivers/CMSIS/Include/cmsis_gcc.h **** __STATIC_FORCEINLINE uint32_t __LDRT(volatile uint32_t *ptr)
 653:Drivers/CMSIS/Include/cmsis_gcc.h **** {
 654:Drivers/CMSIS/Include/cmsis_gcc.h ****     uint32_t result;
 655:Drivers/CMSIS/Include/cmsis_gcc.h **** 
 656:Drivers/CMSIS/Include/cmsis_gcc.h ****    __ASM volatile ("ldrt %0, %1" : "=r" (result) : "Q" (*ptr) );
 657:Drivers/CMSIS/Include/cmsis_gcc.h ****    return(result);
 658:Drivers/CMSIS/Include/cmsis_gcc.h **** }
 659:Drivers/CMSIS/Include/cmsis_gcc.h **** 
 660:Drivers/CMSIS/Include/cmsis_gcc.h **** 
 661:Drivers/CMSIS/Include/cmsis_gcc.h **** /**
 662:Drivers/CMSIS/Include/cmsis_gcc.h ****   \brief   STRT Unprivileged (8 bit)
 663:Drivers/CMSIS/Include/cmsis_gcc.h ****   \details Executes a Unprivileged STRT instruction for 8 bit values.
 664:Drivers/CMSIS/Include/cmsis_gcc.h ****   \param [in]  value  Value to store
 665:Drivers/CMSIS/Include/cmsis_gcc.h ****   \param [in]    ptr  Pointer to location
 666:Drivers/CMSIS/Include/cmsis_gcc.h ****  */
 667:Drivers/CMSIS/Include/cmsis_gcc.h **** __STATIC_FORCEINLINE void __STRBT(uint8_t value, volatile uint8_t *ptr)
 668:Drivers/CMSIS/Include/cmsis_gcc.h **** {
 669:Drivers/CMSIS/Include/cmsis_gcc.h ****    __ASM volatile ("strbt %1, %0" : "=Q" (*ptr) : "r" ((uint32_t)value) );
 670:Drivers/CMSIS/Include/cmsis_gcc.h **** }
 671:Drivers/CMSIS/Include/cmsis_gcc.h **** 
 672:Drivers/CMSIS/Include/cmsis_gcc.h **** 
 673:Drivers/CMSIS/Include/cmsis_gcc.h **** /**
 674:Drivers/CMSIS/Include/cmsis_gcc.h ****   \brief   STRT Unprivileged (16 bit)
 675:Drivers/CMSIS/Include/cmsis_gcc.h ****   \details Executes a Unprivileged STRT instruction for 16 bit values.
 676:Drivers/CMSIS/Include/cmsis_gcc.h ****   \param [in]  value  Value to store
 677:Drivers/CMSIS/Include/cmsis_gcc.h ****   \param [in]    ptr  Pointer to location
 678:Drivers/CMSIS/Include/cmsis_gcc.h ****  */
 679:Drivers/CMSIS/Include/cmsis_gcc.h **** __STATIC_FORCEINLINE void __STRHT(uint16_t value, volatile uint16_t *ptr)
 680:Drivers/CMSIS/Include/cmsis_gcc.h **** {
 681:Drivers/CMSIS/Include/cmsis_gcc.h ****    __ASM volatile ("strht %1, %0" : "=Q" (*ptr) : "r" ((uint32_t)value) );
 682:Drivers/CMSIS/Include/cmsis_gcc.h **** }
 683:Drivers/CMSIS/Include/cmsis_gcc.h **** 
 684:Drivers/CMSIS/Include/cmsis_gcc.h **** 
 685:Drivers/CMSIS/Include/cmsis_gcc.h **** /**
 686:Drivers/CMSIS/Include/cmsis_gcc.h ****   \brief   STRT Unprivileged (32 bit)
 687:Drivers/CMSIS/Include/cmsis_gcc.h ****   \details Executes a Unprivileged STRT instruction for 32 bit values.
 688:Drivers/CMSIS/Include/cmsis_gcc.h ****   \param [in]  value  Value to store
 689:Drivers/CMSIS/Include/cmsis_gcc.h ****   \param [in]    ptr  Pointer to location
ARM GAS  C:\Users\3kb\AppData\Local\Temp\ccoOmmoe.s 			page 17


 690:Drivers/CMSIS/Include/cmsis_gcc.h ****  */
 691:Drivers/CMSIS/Include/cmsis_gcc.h **** __STATIC_FORCEINLINE void __STRT(uint32_t value, volatile uint32_t *ptr)
 692:Drivers/CMSIS/Include/cmsis_gcc.h **** {
 693:Drivers/CMSIS/Include/cmsis_gcc.h ****    __ASM volatile ("strt %1, %0" : "=Q" (*ptr) : "r" (value) );
 694:Drivers/CMSIS/Include/cmsis_gcc.h **** }
 695:Drivers/CMSIS/Include/cmsis_gcc.h **** 
 696:Drivers/CMSIS/Include/cmsis_gcc.h **** #else  /* ((defined (__ARM_ARCH_7M__      ) && (__ARM_ARCH_7M__      == 1)) || \
 697:Drivers/CMSIS/Include/cmsis_gcc.h ****            (defined (__ARM_ARCH_7EM__     ) && (__ARM_ARCH_7EM__     == 1)) || \
 698:Drivers/CMSIS/Include/cmsis_gcc.h ****            (defined (__ARM_ARCH_8M_MAIN__ ) && (__ARM_ARCH_8M_MAIN__ == 1))    ) */
 699:Drivers/CMSIS/Include/cmsis_gcc.h **** 
 700:Drivers/CMSIS/Include/cmsis_gcc.h **** /**
 701:Drivers/CMSIS/Include/cmsis_gcc.h ****   \brief   Signed Saturate
 702:Drivers/CMSIS/Include/cmsis_gcc.h ****   \details Saturates a signed value.
 703:Drivers/CMSIS/Include/cmsis_gcc.h ****   \param [in]  value  Value to be saturated
 704:Drivers/CMSIS/Include/cmsis_gcc.h ****   \param [in]    sat  Bit position to saturate to (1..32)
 705:Drivers/CMSIS/Include/cmsis_gcc.h ****   \return             Saturated value
 706:Drivers/CMSIS/Include/cmsis_gcc.h ****  */
 707:Drivers/CMSIS/Include/cmsis_gcc.h **** __STATIC_FORCEINLINE int32_t __SSAT(int32_t val, uint32_t sat)
 708:Drivers/CMSIS/Include/cmsis_gcc.h **** {
 709:Drivers/CMSIS/Include/cmsis_gcc.h ****   if ((sat >= 1U) && (sat <= 32U))
 710:Drivers/CMSIS/Include/cmsis_gcc.h ****   {
 711:Drivers/CMSIS/Include/cmsis_gcc.h ****     const int32_t max = (int32_t)((1U << (sat - 1U)) - 1U);
 712:Drivers/CMSIS/Include/cmsis_gcc.h ****     const int32_t min = -1 - max ;
 713:Drivers/CMSIS/Include/cmsis_gcc.h ****     if (val > max)
 714:Drivers/CMSIS/Include/cmsis_gcc.h ****     {
 715:Drivers/CMSIS/Include/cmsis_gcc.h ****       return max;
 716:Drivers/CMSIS/Include/cmsis_gcc.h ****     }
 717:Drivers/CMSIS/Include/cmsis_gcc.h ****     else if (val < min)
 718:Drivers/CMSIS/Include/cmsis_gcc.h ****     {
 719:Drivers/CMSIS/Include/cmsis_gcc.h ****       return min;
 720:Drivers/CMSIS/Include/cmsis_gcc.h ****     }
 721:Drivers/CMSIS/Include/cmsis_gcc.h ****   }
 722:Drivers/CMSIS/Include/cmsis_gcc.h ****   return val;
 723:Drivers/CMSIS/Include/cmsis_gcc.h **** }
 724:Drivers/CMSIS/Include/cmsis_gcc.h **** 
 725:Drivers/CMSIS/Include/cmsis_gcc.h **** /**
 726:Drivers/CMSIS/Include/cmsis_gcc.h ****   \brief   Unsigned Saturate
 727:Drivers/CMSIS/Include/cmsis_gcc.h ****   \details Saturates an unsigned value.
 728:Drivers/CMSIS/Include/cmsis_gcc.h ****   \param [in]  value  Value to be saturated
 729:Drivers/CMSIS/Include/cmsis_gcc.h ****   \param [in]    sat  Bit position to saturate to (0..31)
 730:Drivers/CMSIS/Include/cmsis_gcc.h ****   \return             Saturated value
 731:Drivers/CMSIS/Include/cmsis_gcc.h ****  */
 732:Drivers/CMSIS/Include/cmsis_gcc.h **** __STATIC_FORCEINLINE uint32_t __USAT(int32_t val, uint32_t sat)
 733:Drivers/CMSIS/Include/cmsis_gcc.h **** {
 734:Drivers/CMSIS/Include/cmsis_gcc.h ****   if (sat <= 31U)
 735:Drivers/CMSIS/Include/cmsis_gcc.h ****   {
 736:Drivers/CMSIS/Include/cmsis_gcc.h ****     const uint32_t max = ((1U << sat) - 1U);
 737:Drivers/CMSIS/Include/cmsis_gcc.h ****     if (val > (int32_t)max)
 738:Drivers/CMSIS/Include/cmsis_gcc.h ****     {
 739:Drivers/CMSIS/Include/cmsis_gcc.h ****       return max;
 740:Drivers/CMSIS/Include/cmsis_gcc.h ****     }
 741:Drivers/CMSIS/Include/cmsis_gcc.h ****     else if (val < 0)
 742:Drivers/CMSIS/Include/cmsis_gcc.h ****     {
 743:Drivers/CMSIS/Include/cmsis_gcc.h ****       return 0U;
 744:Drivers/CMSIS/Include/cmsis_gcc.h ****     }
 745:Drivers/CMSIS/Include/cmsis_gcc.h ****   }
 746:Drivers/CMSIS/Include/cmsis_gcc.h ****   return (uint32_t)val;
ARM GAS  C:\Users\3kb\AppData\Local\Temp\ccoOmmoe.s 			page 18


 747:Drivers/CMSIS/Include/cmsis_gcc.h **** }
 748:Drivers/CMSIS/Include/cmsis_gcc.h **** 
 749:Drivers/CMSIS/Include/cmsis_gcc.h **** #endif /* ((defined (__ARM_ARCH_7M__      ) && (__ARM_ARCH_7M__      == 1)) || \
 750:Drivers/CMSIS/Include/cmsis_gcc.h ****            (defined (__ARM_ARCH_7EM__     ) && (__ARM_ARCH_7EM__     == 1)) || \
 751:Drivers/CMSIS/Include/cmsis_gcc.h ****            (defined (__ARM_ARCH_8M_MAIN__ ) && (__ARM_ARCH_8M_MAIN__ == 1))    ) */
 752:Drivers/CMSIS/Include/cmsis_gcc.h **** 
 753:Drivers/CMSIS/Include/cmsis_gcc.h **** 
 754:Drivers/CMSIS/Include/cmsis_gcc.h **** #if ((defined (__ARM_ARCH_8M_MAIN__ ) && (__ARM_ARCH_8M_MAIN__ == 1)) || \
 755:Drivers/CMSIS/Include/cmsis_gcc.h ****      (defined (__ARM_ARCH_8M_BASE__ ) && (__ARM_ARCH_8M_BASE__ == 1))    )
 756:Drivers/CMSIS/Include/cmsis_gcc.h **** /**
 757:Drivers/CMSIS/Include/cmsis_gcc.h ****   \brief   Load-Acquire (8 bit)
 758:Drivers/CMSIS/Include/cmsis_gcc.h ****   \details Executes a LDAB instruction for 8 bit value.
 759:Drivers/CMSIS/Include/cmsis_gcc.h ****   \param [in]    ptr  Pointer to data
 760:Drivers/CMSIS/Include/cmsis_gcc.h ****   \return             value of type uint8_t at (*ptr)
 761:Drivers/CMSIS/Include/cmsis_gcc.h ****  */
 762:Drivers/CMSIS/Include/cmsis_gcc.h **** __STATIC_FORCEINLINE uint8_t __LDAB(volatile uint8_t *ptr)
 763:Drivers/CMSIS/Include/cmsis_gcc.h **** {
 764:Drivers/CMSIS/Include/cmsis_gcc.h ****     uint32_t result;
 765:Drivers/CMSIS/Include/cmsis_gcc.h **** 
 766:Drivers/CMSIS/Include/cmsis_gcc.h ****    __ASM volatile ("ldab %0, %1" : "=r" (result) : "Q" (*ptr) : "memory" );
 767:Drivers/CMSIS/Include/cmsis_gcc.h ****    return ((uint8_t) result);
 768:Drivers/CMSIS/Include/cmsis_gcc.h **** }
 769:Drivers/CMSIS/Include/cmsis_gcc.h **** 
 770:Drivers/CMSIS/Include/cmsis_gcc.h **** 
 771:Drivers/CMSIS/Include/cmsis_gcc.h **** /**
 772:Drivers/CMSIS/Include/cmsis_gcc.h ****   \brief   Load-Acquire (16 bit)
 773:Drivers/CMSIS/Include/cmsis_gcc.h ****   \details Executes a LDAH instruction for 16 bit values.
 774:Drivers/CMSIS/Include/cmsis_gcc.h ****   \param [in]    ptr  Pointer to data
 775:Drivers/CMSIS/Include/cmsis_gcc.h ****   \return        value of type uint16_t at (*ptr)
 776:Drivers/CMSIS/Include/cmsis_gcc.h ****  */
 777:Drivers/CMSIS/Include/cmsis_gcc.h **** __STATIC_FORCEINLINE uint16_t __LDAH(volatile uint16_t *ptr)
 778:Drivers/CMSIS/Include/cmsis_gcc.h **** {
 779:Drivers/CMSIS/Include/cmsis_gcc.h ****     uint32_t result;
 780:Drivers/CMSIS/Include/cmsis_gcc.h **** 
 781:Drivers/CMSIS/Include/cmsis_gcc.h ****    __ASM volatile ("ldah %0, %1" : "=r" (result) : "Q" (*ptr) : "memory" );
 782:Drivers/CMSIS/Include/cmsis_gcc.h ****    return ((uint16_t) result);
 783:Drivers/CMSIS/Include/cmsis_gcc.h **** }
 784:Drivers/CMSIS/Include/cmsis_gcc.h **** 
 785:Drivers/CMSIS/Include/cmsis_gcc.h **** 
 786:Drivers/CMSIS/Include/cmsis_gcc.h **** /**
 787:Drivers/CMSIS/Include/cmsis_gcc.h ****   \brief   Load-Acquire (32 bit)
 788:Drivers/CMSIS/Include/cmsis_gcc.h ****   \details Executes a LDA instruction for 32 bit values.
 789:Drivers/CMSIS/Include/cmsis_gcc.h ****   \param [in]    ptr  Pointer to data
 790:Drivers/CMSIS/Include/cmsis_gcc.h ****   \return        value of type uint32_t at (*ptr)
 791:Drivers/CMSIS/Include/cmsis_gcc.h ****  */
 792:Drivers/CMSIS/Include/cmsis_gcc.h **** __STATIC_FORCEINLINE uint32_t __LDA(volatile uint32_t *ptr)
 793:Drivers/CMSIS/Include/cmsis_gcc.h **** {
 794:Drivers/CMSIS/Include/cmsis_gcc.h ****     uint32_t result;
 795:Drivers/CMSIS/Include/cmsis_gcc.h **** 
 796:Drivers/CMSIS/Include/cmsis_gcc.h ****    __ASM volatile ("lda %0, %1" : "=r" (result) : "Q" (*ptr) : "memory" );
 797:Drivers/CMSIS/Include/cmsis_gcc.h ****    return(result);
 798:Drivers/CMSIS/Include/cmsis_gcc.h **** }
 799:Drivers/CMSIS/Include/cmsis_gcc.h **** 
 800:Drivers/CMSIS/Include/cmsis_gcc.h **** 
 801:Drivers/CMSIS/Include/cmsis_gcc.h **** /**
 802:Drivers/CMSIS/Include/cmsis_gcc.h ****   \brief   Store-Release (8 bit)
 803:Drivers/CMSIS/Include/cmsis_gcc.h ****   \details Executes a STLB instruction for 8 bit values.
ARM GAS  C:\Users\3kb\AppData\Local\Temp\ccoOmmoe.s 			page 19


 804:Drivers/CMSIS/Include/cmsis_gcc.h ****   \param [in]  value  Value to store
 805:Drivers/CMSIS/Include/cmsis_gcc.h ****   \param [in]    ptr  Pointer to location
 806:Drivers/CMSIS/Include/cmsis_gcc.h ****  */
 807:Drivers/CMSIS/Include/cmsis_gcc.h **** __STATIC_FORCEINLINE void __STLB(uint8_t value, volatile uint8_t *ptr)
 808:Drivers/CMSIS/Include/cmsis_gcc.h **** {
 809:Drivers/CMSIS/Include/cmsis_gcc.h ****    __ASM volatile ("stlb %1, %0" : "=Q" (*ptr) : "r" ((uint32_t)value) : "memory" );
 810:Drivers/CMSIS/Include/cmsis_gcc.h **** }
 811:Drivers/CMSIS/Include/cmsis_gcc.h **** 
 812:Drivers/CMSIS/Include/cmsis_gcc.h **** 
 813:Drivers/CMSIS/Include/cmsis_gcc.h **** /**
 814:Drivers/CMSIS/Include/cmsis_gcc.h ****   \brief   Store-Release (16 bit)
 815:Drivers/CMSIS/Include/cmsis_gcc.h ****   \details Executes a STLH instruction for 16 bit values.
 816:Drivers/CMSIS/Include/cmsis_gcc.h ****   \param [in]  value  Value to store
 817:Drivers/CMSIS/Include/cmsis_gcc.h ****   \param [in]    ptr  Pointer to location
 818:Drivers/CMSIS/Include/cmsis_gcc.h ****  */
 819:Drivers/CMSIS/Include/cmsis_gcc.h **** __STATIC_FORCEINLINE void __STLH(uint16_t value, volatile uint16_t *ptr)
 820:Drivers/CMSIS/Include/cmsis_gcc.h **** {
 821:Drivers/CMSIS/Include/cmsis_gcc.h ****    __ASM volatile ("stlh %1, %0" : "=Q" (*ptr) : "r" ((uint32_t)value) : "memory" );
 822:Drivers/CMSIS/Include/cmsis_gcc.h **** }
 823:Drivers/CMSIS/Include/cmsis_gcc.h **** 
 824:Drivers/CMSIS/Include/cmsis_gcc.h **** 
 825:Drivers/CMSIS/Include/cmsis_gcc.h **** /**
 826:Drivers/CMSIS/Include/cmsis_gcc.h ****   \brief   Store-Release (32 bit)
 827:Drivers/CMSIS/Include/cmsis_gcc.h ****   \details Executes a STL instruction for 32 bit values.
 828:Drivers/CMSIS/Include/cmsis_gcc.h ****   \param [in]  value  Value to store
 829:Drivers/CMSIS/Include/cmsis_gcc.h ****   \param [in]    ptr  Pointer to location
 830:Drivers/CMSIS/Include/cmsis_gcc.h ****  */
 831:Drivers/CMSIS/Include/cmsis_gcc.h **** __STATIC_FORCEINLINE void __STL(uint32_t value, volatile uint32_t *ptr)
 832:Drivers/CMSIS/Include/cmsis_gcc.h **** {
 833:Drivers/CMSIS/Include/cmsis_gcc.h ****    __ASM volatile ("stl %1, %0" : "=Q" (*ptr) : "r" ((uint32_t)value) : "memory" );
 834:Drivers/CMSIS/Include/cmsis_gcc.h **** }
 835:Drivers/CMSIS/Include/cmsis_gcc.h **** 
 836:Drivers/CMSIS/Include/cmsis_gcc.h **** 
 837:Drivers/CMSIS/Include/cmsis_gcc.h **** /**
 838:Drivers/CMSIS/Include/cmsis_gcc.h ****   \brief   Load-Acquire Exclusive (8 bit)
 839:Drivers/CMSIS/Include/cmsis_gcc.h ****   \details Executes a LDAB exclusive instruction for 8 bit value.
 840:Drivers/CMSIS/Include/cmsis_gcc.h ****   \param [in]    ptr  Pointer to data
 841:Drivers/CMSIS/Include/cmsis_gcc.h ****   \return             value of type uint8_t at (*ptr)
 842:Drivers/CMSIS/Include/cmsis_gcc.h ****  */
 843:Drivers/CMSIS/Include/cmsis_gcc.h **** __STATIC_FORCEINLINE uint8_t __LDAEXB(volatile uint8_t *ptr)
 844:Drivers/CMSIS/Include/cmsis_gcc.h **** {
 845:Drivers/CMSIS/Include/cmsis_gcc.h ****     uint32_t result;
 846:Drivers/CMSIS/Include/cmsis_gcc.h **** 
 847:Drivers/CMSIS/Include/cmsis_gcc.h ****    __ASM volatile ("ldaexb %0, %1" : "=r" (result) : "Q" (*ptr) : "memory" );
 848:Drivers/CMSIS/Include/cmsis_gcc.h ****    return ((uint8_t) result);
 849:Drivers/CMSIS/Include/cmsis_gcc.h **** }
 850:Drivers/CMSIS/Include/cmsis_gcc.h **** 
 851:Drivers/CMSIS/Include/cmsis_gcc.h **** 
 852:Drivers/CMSIS/Include/cmsis_gcc.h **** /**
 853:Drivers/CMSIS/Include/cmsis_gcc.h ****   \brief   Load-Acquire Exclusive (16 bit)
 854:Drivers/CMSIS/Include/cmsis_gcc.h ****   \details Executes a LDAH exclusive instruction for 16 bit values.
 855:Drivers/CMSIS/Include/cmsis_gcc.h ****   \param [in]    ptr  Pointer to data
 856:Drivers/CMSIS/Include/cmsis_gcc.h ****   \return        value of type uint16_t at (*ptr)
 857:Drivers/CMSIS/Include/cmsis_gcc.h ****  */
 858:Drivers/CMSIS/Include/cmsis_gcc.h **** __STATIC_FORCEINLINE uint16_t __LDAEXH(volatile uint16_t *ptr)
 859:Drivers/CMSIS/Include/cmsis_gcc.h **** {
 860:Drivers/CMSIS/Include/cmsis_gcc.h ****     uint32_t result;
ARM GAS  C:\Users\3kb\AppData\Local\Temp\ccoOmmoe.s 			page 20


 861:Drivers/CMSIS/Include/cmsis_gcc.h **** 
 862:Drivers/CMSIS/Include/cmsis_gcc.h ****    __ASM volatile ("ldaexh %0, %1" : "=r" (result) : "Q" (*ptr) : "memory" );
 863:Drivers/CMSIS/Include/cmsis_gcc.h ****    return ((uint16_t) result);
 864:Drivers/CMSIS/Include/cmsis_gcc.h **** }
 865:Drivers/CMSIS/Include/cmsis_gcc.h **** 
 866:Drivers/CMSIS/Include/cmsis_gcc.h **** 
 867:Drivers/CMSIS/Include/cmsis_gcc.h **** /**
 868:Drivers/CMSIS/Include/cmsis_gcc.h ****   \brief   Load-Acquire Exclusive (32 bit)
 869:Drivers/CMSIS/Include/cmsis_gcc.h ****   \details Executes a LDA exclusive instruction for 32 bit values.
 870:Drivers/CMSIS/Include/cmsis_gcc.h ****   \param [in]    ptr  Pointer to data
 871:Drivers/CMSIS/Include/cmsis_gcc.h ****   \return        value of type uint32_t at (*ptr)
 872:Drivers/CMSIS/Include/cmsis_gcc.h ****  */
 873:Drivers/CMSIS/Include/cmsis_gcc.h **** __STATIC_FORCEINLINE uint32_t __LDAEX(volatile uint32_t *ptr)
 874:Drivers/CMSIS/Include/cmsis_gcc.h **** {
 875:Drivers/CMSIS/Include/cmsis_gcc.h ****     uint32_t result;
 876:Drivers/CMSIS/Include/cmsis_gcc.h **** 
 877:Drivers/CMSIS/Include/cmsis_gcc.h ****    __ASM volatile ("ldaex %0, %1" : "=r" (result) : "Q" (*ptr) : "memory" );
 878:Drivers/CMSIS/Include/cmsis_gcc.h ****    return(result);
 879:Drivers/CMSIS/Include/cmsis_gcc.h **** }
 880:Drivers/CMSIS/Include/cmsis_gcc.h **** 
 881:Drivers/CMSIS/Include/cmsis_gcc.h **** 
 882:Drivers/CMSIS/Include/cmsis_gcc.h **** /**
 883:Drivers/CMSIS/Include/cmsis_gcc.h ****   \brief   Store-Release Exclusive (8 bit)
 884:Drivers/CMSIS/Include/cmsis_gcc.h ****   \details Executes a STLB exclusive instruction for 8 bit values.
 885:Drivers/CMSIS/Include/cmsis_gcc.h ****   \param [in]  value  Value to store
 886:Drivers/CMSIS/Include/cmsis_gcc.h ****   \param [in]    ptr  Pointer to location
 887:Drivers/CMSIS/Include/cmsis_gcc.h ****   \return          0  Function succeeded
 888:Drivers/CMSIS/Include/cmsis_gcc.h ****   \return          1  Function failed
 889:Drivers/CMSIS/Include/cmsis_gcc.h ****  */
 890:Drivers/CMSIS/Include/cmsis_gcc.h **** __STATIC_FORCEINLINE uint32_t __STLEXB(uint8_t value, volatile uint8_t *ptr)
 891:Drivers/CMSIS/Include/cmsis_gcc.h **** {
 892:Drivers/CMSIS/Include/cmsis_gcc.h ****    uint32_t result;
 893:Drivers/CMSIS/Include/cmsis_gcc.h **** 
 894:Drivers/CMSIS/Include/cmsis_gcc.h ****    __ASM volatile ("stlexb %0, %2, %1" : "=&r" (result), "=Q" (*ptr) : "r" ((uint32_t)value) : "mem
 895:Drivers/CMSIS/Include/cmsis_gcc.h ****    return(result);
 896:Drivers/CMSIS/Include/cmsis_gcc.h **** }
 897:Drivers/CMSIS/Include/cmsis_gcc.h **** 
 898:Drivers/CMSIS/Include/cmsis_gcc.h **** 
 899:Drivers/CMSIS/Include/cmsis_gcc.h **** /**
 900:Drivers/CMSIS/Include/cmsis_gcc.h ****   \brief   Store-Release Exclusive (16 bit)
 901:Drivers/CMSIS/Include/cmsis_gcc.h ****   \details Executes a STLH exclusive instruction for 16 bit values.
 902:Drivers/CMSIS/Include/cmsis_gcc.h ****   \param [in]  value  Value to store
 903:Drivers/CMSIS/Include/cmsis_gcc.h ****   \param [in]    ptr  Pointer to location
 904:Drivers/CMSIS/Include/cmsis_gcc.h ****   \return          0  Function succeeded
 905:Drivers/CMSIS/Include/cmsis_gcc.h ****   \return          1  Function failed
 906:Drivers/CMSIS/Include/cmsis_gcc.h ****  */
 907:Drivers/CMSIS/Include/cmsis_gcc.h **** __STATIC_FORCEINLINE uint32_t __STLEXH(uint16_t value, volatile uint16_t *ptr)
 908:Drivers/CMSIS/Include/cmsis_gcc.h **** {
 909:Drivers/CMSIS/Include/cmsis_gcc.h ****    uint32_t result;
 910:Drivers/CMSIS/Include/cmsis_gcc.h **** 
 911:Drivers/CMSIS/Include/cmsis_gcc.h ****    __ASM volatile ("stlexh %0, %2, %1" : "=&r" (result), "=Q" (*ptr) : "r" ((uint32_t)value) : "mem
 912:Drivers/CMSIS/Include/cmsis_gcc.h ****    return(result);
 913:Drivers/CMSIS/Include/cmsis_gcc.h **** }
 914:Drivers/CMSIS/Include/cmsis_gcc.h **** 
 915:Drivers/CMSIS/Include/cmsis_gcc.h **** 
 916:Drivers/CMSIS/Include/cmsis_gcc.h **** /**
 917:Drivers/CMSIS/Include/cmsis_gcc.h ****   \brief   Store-Release Exclusive (32 bit)
ARM GAS  C:\Users\3kb\AppData\Local\Temp\ccoOmmoe.s 			page 21


 918:Drivers/CMSIS/Include/cmsis_gcc.h ****   \details Executes a STL exclusive instruction for 32 bit values.
 919:Drivers/CMSIS/Include/cmsis_gcc.h ****   \param [in]  value  Value to store
 920:Drivers/CMSIS/Include/cmsis_gcc.h ****   \param [in]    ptr  Pointer to location
 921:Drivers/CMSIS/Include/cmsis_gcc.h ****   \return          0  Function succeeded
 922:Drivers/CMSIS/Include/cmsis_gcc.h ****   \return          1  Function failed
 923:Drivers/CMSIS/Include/cmsis_gcc.h ****  */
 924:Drivers/CMSIS/Include/cmsis_gcc.h **** __STATIC_FORCEINLINE uint32_t __STLEX(uint32_t value, volatile uint32_t *ptr)
 925:Drivers/CMSIS/Include/cmsis_gcc.h **** {
 926:Drivers/CMSIS/Include/cmsis_gcc.h ****    uint32_t result;
 927:Drivers/CMSIS/Include/cmsis_gcc.h **** 
 928:Drivers/CMSIS/Include/cmsis_gcc.h ****    __ASM volatile ("stlex %0, %2, %1" : "=&r" (result), "=Q" (*ptr) : "r" ((uint32_t)value) : "memo
 929:Drivers/CMSIS/Include/cmsis_gcc.h ****    return(result);
 930:Drivers/CMSIS/Include/cmsis_gcc.h **** }
 931:Drivers/CMSIS/Include/cmsis_gcc.h **** 
 932:Drivers/CMSIS/Include/cmsis_gcc.h **** #endif /* ((defined (__ARM_ARCH_8M_MAIN__ ) && (__ARM_ARCH_8M_MAIN__ == 1)) || \
 933:Drivers/CMSIS/Include/cmsis_gcc.h ****            (defined (__ARM_ARCH_8M_BASE__ ) && (__ARM_ARCH_8M_BASE__ == 1))    ) */
 934:Drivers/CMSIS/Include/cmsis_gcc.h **** 
 935:Drivers/CMSIS/Include/cmsis_gcc.h **** /*@}*/ /* end of group CMSIS_Core_InstructionInterface */
 936:Drivers/CMSIS/Include/cmsis_gcc.h **** 
 937:Drivers/CMSIS/Include/cmsis_gcc.h **** 
 938:Drivers/CMSIS/Include/cmsis_gcc.h **** /* ###########################  Core Function Access  ########################### */
 939:Drivers/CMSIS/Include/cmsis_gcc.h **** /** \ingroup  CMSIS_Core_FunctionInterface
 940:Drivers/CMSIS/Include/cmsis_gcc.h ****     \defgroup CMSIS_Core_RegAccFunctions CMSIS Core Register Access Functions
 941:Drivers/CMSIS/Include/cmsis_gcc.h ****   @{
 942:Drivers/CMSIS/Include/cmsis_gcc.h ****  */
 943:Drivers/CMSIS/Include/cmsis_gcc.h **** 
 944:Drivers/CMSIS/Include/cmsis_gcc.h **** /**
 945:Drivers/CMSIS/Include/cmsis_gcc.h ****   \brief   Enable IRQ Interrupts
 946:Drivers/CMSIS/Include/cmsis_gcc.h ****   \details Enables IRQ interrupts by clearing special-purpose register PRIMASK.
 947:Drivers/CMSIS/Include/cmsis_gcc.h ****            Can only be executed in Privileged modes.
 948:Drivers/CMSIS/Include/cmsis_gcc.h ****  */
 949:Drivers/CMSIS/Include/cmsis_gcc.h **** __STATIC_FORCEINLINE void __enable_irq(void)
 950:Drivers/CMSIS/Include/cmsis_gcc.h **** {
 951:Drivers/CMSIS/Include/cmsis_gcc.h ****   __ASM volatile ("cpsie i" : : : "memory");
 952:Drivers/CMSIS/Include/cmsis_gcc.h **** }
 953:Drivers/CMSIS/Include/cmsis_gcc.h **** 
 954:Drivers/CMSIS/Include/cmsis_gcc.h **** 
 955:Drivers/CMSIS/Include/cmsis_gcc.h **** /**
 956:Drivers/CMSIS/Include/cmsis_gcc.h ****   \brief   Disable IRQ Interrupts
 957:Drivers/CMSIS/Include/cmsis_gcc.h ****   \details Disables IRQ interrupts by setting special-purpose register PRIMASK.
 958:Drivers/CMSIS/Include/cmsis_gcc.h ****            Can only be executed in Privileged modes.
 959:Drivers/CMSIS/Include/cmsis_gcc.h ****  */
 960:Drivers/CMSIS/Include/cmsis_gcc.h **** __STATIC_FORCEINLINE void __disable_irq(void)
  39              		.loc 2 960 27 view .LVU2
  40              	.LBB5:
 961:Drivers/CMSIS/Include/cmsis_gcc.h **** {
 962:Drivers/CMSIS/Include/cmsis_gcc.h ****   __ASM volatile ("cpsid i" : : : "memory");
  41              		.loc 2 962 3 view .LVU3
  42              		.syntax unified
  43              	@ 962 "Drivers/CMSIS/Include/cmsis_gcc.h" 1
  44 0000 72B6     		cpsid i
  45              	@ 0 "" 2
  46              		.thumb
  47              		.syntax unified
  48              	.L2:
  49              	.LBE5:
  50              	.LBE4:
ARM GAS  C:\Users\3kb\AppData\Local\Temp\ccoOmmoe.s 			page 22


 187:Core/Src/main.c ****   while (1)
  51              		.loc 1 187 3 view .LVU4
 188:Core/Src/main.c ****   {
 189:Core/Src/main.c ****   }
  52              		.loc 1 189 3 view .LVU5
 187:Core/Src/main.c ****   while (1)
  53              		.loc 1 187 9 view .LVU6
  54 0002 FEE7     		b	.L2
  55              		.cfi_endproc
  56              	.LFE136:
  58              		.section	.text.SystemClock_Config,"ax",%progbits
  59              		.align	1
  60              		.global	SystemClock_Config
  61              		.syntax unified
  62              		.thumb
  63              		.thumb_func
  65              	SystemClock_Config:
  66              	.LFB135:
 133:Core/Src/main.c ****   RCC_OscInitTypeDef RCC_OscInitStruct = {0};
  67              		.loc 1 133 1 view -0
  68              		.cfi_startproc
  69              		@ args = 0, pretend = 0, frame = 80
  70              		@ frame_needed = 0, uses_anonymous_args = 0
  71 0000 00B5     		push	{lr}
  72              	.LCFI0:
  73              		.cfi_def_cfa_offset 4
  74              		.cfi_offset 14, -4
  75 0002 95B0     		sub	sp, sp, #84
  76              	.LCFI1:
  77              		.cfi_def_cfa_offset 88
 134:Core/Src/main.c ****   RCC_ClkInitTypeDef RCC_ClkInitStruct = {0};
  78              		.loc 1 134 3 view .LVU8
 134:Core/Src/main.c ****   RCC_ClkInitTypeDef RCC_ClkInitStruct = {0};
  79              		.loc 1 134 22 is_stmt 0 view .LVU9
  80 0004 3022     		movs	r2, #48
  81 0006 0021     		movs	r1, #0
  82 0008 08A8     		add	r0, sp, #32
  83 000a FFF7FEFF 		bl	memset
  84              	.LVL0:
 135:Core/Src/main.c **** 
  85              		.loc 1 135 3 is_stmt 1 view .LVU10
 135:Core/Src/main.c **** 
  86              		.loc 1 135 22 is_stmt 0 view .LVU11
  87 000e 0023     		movs	r3, #0
  88 0010 0393     		str	r3, [sp, #12]
  89 0012 0493     		str	r3, [sp, #16]
  90 0014 0593     		str	r3, [sp, #20]
  91 0016 0693     		str	r3, [sp, #24]
  92 0018 0793     		str	r3, [sp, #28]
 139:Core/Src/main.c ****   __HAL_PWR_VOLTAGESCALING_CONFIG(PWR_REGULATOR_VOLTAGE_SCALE1);
  93              		.loc 1 139 3 is_stmt 1 view .LVU12
  94              	.LBB6:
 139:Core/Src/main.c ****   __HAL_PWR_VOLTAGESCALING_CONFIG(PWR_REGULATOR_VOLTAGE_SCALE1);
  95              		.loc 1 139 3 view .LVU13
  96 001a 0193     		str	r3, [sp, #4]
 139:Core/Src/main.c ****   __HAL_PWR_VOLTAGESCALING_CONFIG(PWR_REGULATOR_VOLTAGE_SCALE1);
  97              		.loc 1 139 3 view .LVU14
ARM GAS  C:\Users\3kb\AppData\Local\Temp\ccoOmmoe.s 			page 23


  98 001c 1F4A     		ldr	r2, .L9
  99 001e 116C     		ldr	r1, [r2, #64]
 100 0020 41F08051 		orr	r1, r1, #268435456
 101 0024 1164     		str	r1, [r2, #64]
 139:Core/Src/main.c ****   __HAL_PWR_VOLTAGESCALING_CONFIG(PWR_REGULATOR_VOLTAGE_SCALE1);
 102              		.loc 1 139 3 view .LVU15
 103 0026 126C     		ldr	r2, [r2, #64]
 104 0028 02F08052 		and	r2, r2, #268435456
 105 002c 0192     		str	r2, [sp, #4]
 139:Core/Src/main.c ****   __HAL_PWR_VOLTAGESCALING_CONFIG(PWR_REGULATOR_VOLTAGE_SCALE1);
 106              		.loc 1 139 3 view .LVU16
 107 002e 019A     		ldr	r2, [sp, #4]
 108              	.LBE6:
 139:Core/Src/main.c ****   __HAL_PWR_VOLTAGESCALING_CONFIG(PWR_REGULATOR_VOLTAGE_SCALE1);
 109              		.loc 1 139 3 view .LVU17
 140:Core/Src/main.c **** 
 110              		.loc 1 140 3 view .LVU18
 111              	.LBB7:
 140:Core/Src/main.c **** 
 112              		.loc 1 140 3 view .LVU19
 113 0030 0293     		str	r3, [sp, #8]
 140:Core/Src/main.c **** 
 114              		.loc 1 140 3 view .LVU20
 115 0032 1B4A     		ldr	r2, .L9+4
 116 0034 1168     		ldr	r1, [r2]
 117 0036 41F48041 		orr	r1, r1, #16384
 118 003a 1160     		str	r1, [r2]
 140:Core/Src/main.c **** 
 119              		.loc 1 140 3 view .LVU21
 120 003c 1268     		ldr	r2, [r2]
 121 003e 02F48042 		and	r2, r2, #16384
 122 0042 0292     		str	r2, [sp, #8]
 140:Core/Src/main.c **** 
 123              		.loc 1 140 3 view .LVU22
 124 0044 029A     		ldr	r2, [sp, #8]
 125              	.LBE7:
 140:Core/Src/main.c **** 
 126              		.loc 1 140 3 view .LVU23
 145:Core/Src/main.c ****   RCC_OscInitStruct.HSIState = RCC_HSI_ON;
 127              		.loc 1 145 3 view .LVU24
 145:Core/Src/main.c ****   RCC_OscInitStruct.HSIState = RCC_HSI_ON;
 128              		.loc 1 145 36 is_stmt 0 view .LVU25
 129 0046 0222     		movs	r2, #2
 130 0048 0892     		str	r2, [sp, #32]
 146:Core/Src/main.c ****   RCC_OscInitStruct.HSICalibrationValue = RCC_HSICALIBRATION_DEFAULT;
 131              		.loc 1 146 3 is_stmt 1 view .LVU26
 146:Core/Src/main.c ****   RCC_OscInitStruct.HSICalibrationValue = RCC_HSICALIBRATION_DEFAULT;
 132              		.loc 1 146 30 is_stmt 0 view .LVU27
 133 004a 0121     		movs	r1, #1
 134 004c 0B91     		str	r1, [sp, #44]
 147:Core/Src/main.c ****   RCC_OscInitStruct.PLL.PLLState = RCC_PLL_ON;
 135              		.loc 1 147 3 is_stmt 1 view .LVU28
 147:Core/Src/main.c ****   RCC_OscInitStruct.PLL.PLLState = RCC_PLL_ON;
 136              		.loc 1 147 41 is_stmt 0 view .LVU29
 137 004e 1021     		movs	r1, #16
 138 0050 0C91     		str	r1, [sp, #48]
 148:Core/Src/main.c ****   RCC_OscInitStruct.PLL.PLLSource = RCC_PLLSOURCE_HSI;
ARM GAS  C:\Users\3kb\AppData\Local\Temp\ccoOmmoe.s 			page 24


 139              		.loc 1 148 3 is_stmt 1 view .LVU30
 148:Core/Src/main.c ****   RCC_OscInitStruct.PLL.PLLSource = RCC_PLLSOURCE_HSI;
 140              		.loc 1 148 34 is_stmt 0 view .LVU31
 141 0052 0E92     		str	r2, [sp, #56]
 149:Core/Src/main.c ****   RCC_OscInitStruct.PLL.PLLM = 8;
 142              		.loc 1 149 3 is_stmt 1 view .LVU32
 149:Core/Src/main.c ****   RCC_OscInitStruct.PLL.PLLM = 8;
 143              		.loc 1 149 35 is_stmt 0 view .LVU33
 144 0054 0F93     		str	r3, [sp, #60]
 150:Core/Src/main.c ****   RCC_OscInitStruct.PLL.PLLN = 168;
 145              		.loc 1 150 3 is_stmt 1 view .LVU34
 150:Core/Src/main.c ****   RCC_OscInitStruct.PLL.PLLN = 168;
 146              		.loc 1 150 30 is_stmt 0 view .LVU35
 147 0056 0823     		movs	r3, #8
 148 0058 1093     		str	r3, [sp, #64]
 151:Core/Src/main.c ****   RCC_OscInitStruct.PLL.PLLP = RCC_PLLP_DIV2;
 149              		.loc 1 151 3 is_stmt 1 view .LVU36
 151:Core/Src/main.c ****   RCC_OscInitStruct.PLL.PLLP = RCC_PLLP_DIV2;
 150              		.loc 1 151 30 is_stmt 0 view .LVU37
 151 005a A823     		movs	r3, #168
 152 005c 1193     		str	r3, [sp, #68]
 152:Core/Src/main.c ****   RCC_OscInitStruct.PLL.PLLQ = 4;
 153              		.loc 1 152 3 is_stmt 1 view .LVU38
 152:Core/Src/main.c ****   RCC_OscInitStruct.PLL.PLLQ = 4;
 154              		.loc 1 152 30 is_stmt 0 view .LVU39
 155 005e 1292     		str	r2, [sp, #72]
 153:Core/Src/main.c ****   if (HAL_RCC_OscConfig(&RCC_OscInitStruct) != HAL_OK)
 156              		.loc 1 153 3 is_stmt 1 view .LVU40
 153:Core/Src/main.c ****   if (HAL_RCC_OscConfig(&RCC_OscInitStruct) != HAL_OK)
 157              		.loc 1 153 30 is_stmt 0 view .LVU41
 158 0060 0423     		movs	r3, #4
 159 0062 1393     		str	r3, [sp, #76]
 154:Core/Src/main.c ****   {
 160              		.loc 1 154 3 is_stmt 1 view .LVU42
 154:Core/Src/main.c ****   {
 161              		.loc 1 154 7 is_stmt 0 view .LVU43
 162 0064 08A8     		add	r0, sp, #32
 163 0066 FFF7FEFF 		bl	HAL_RCC_OscConfig
 164              	.LVL1:
 154:Core/Src/main.c ****   {
 165              		.loc 1 154 6 discriminator 1 view .LVU44
 166 006a 98B9     		cbnz	r0, .L7
 161:Core/Src/main.c ****                               |RCC_CLOCKTYPE_PCLK1|RCC_CLOCKTYPE_PCLK2;
 167              		.loc 1 161 3 is_stmt 1 view .LVU45
 161:Core/Src/main.c ****                               |RCC_CLOCKTYPE_PCLK1|RCC_CLOCKTYPE_PCLK2;
 168              		.loc 1 161 31 is_stmt 0 view .LVU46
 169 006c 0F23     		movs	r3, #15
 170 006e 0393     		str	r3, [sp, #12]
 163:Core/Src/main.c ****   RCC_ClkInitStruct.AHBCLKDivider = RCC_SYSCLK_DIV1;
 171              		.loc 1 163 3 is_stmt 1 view .LVU47
 163:Core/Src/main.c ****   RCC_ClkInitStruct.AHBCLKDivider = RCC_SYSCLK_DIV1;
 172              		.loc 1 163 34 is_stmt 0 view .LVU48
 173 0070 0223     		movs	r3, #2
 174 0072 0493     		str	r3, [sp, #16]
 164:Core/Src/main.c ****   RCC_ClkInitStruct.APB1CLKDivider = RCC_HCLK_DIV4;
 175              		.loc 1 164 3 is_stmt 1 view .LVU49
 164:Core/Src/main.c ****   RCC_ClkInitStruct.APB1CLKDivider = RCC_HCLK_DIV4;
ARM GAS  C:\Users\3kb\AppData\Local\Temp\ccoOmmoe.s 			page 25


 176              		.loc 1 164 35 is_stmt 0 view .LVU50
 177 0074 0023     		movs	r3, #0
 178 0076 0593     		str	r3, [sp, #20]
 165:Core/Src/main.c ****   RCC_ClkInitStruct.APB2CLKDivider = RCC_HCLK_DIV2;
 179              		.loc 1 165 3 is_stmt 1 view .LVU51
 165:Core/Src/main.c ****   RCC_ClkInitStruct.APB2CLKDivider = RCC_HCLK_DIV2;
 180              		.loc 1 165 36 is_stmt 0 view .LVU52
 181 0078 4FF4A053 		mov	r3, #5120
 182 007c 0693     		str	r3, [sp, #24]
 166:Core/Src/main.c **** 
 183              		.loc 1 166 3 is_stmt 1 view .LVU53
 166:Core/Src/main.c **** 
 184              		.loc 1 166 36 is_stmt 0 view .LVU54
 185 007e 4FF48053 		mov	r3, #4096
 186 0082 0793     		str	r3, [sp, #28]
 168:Core/Src/main.c ****   {
 187              		.loc 1 168 3 is_stmt 1 view .LVU55
 168:Core/Src/main.c ****   {
 188              		.loc 1 168 7 is_stmt 0 view .LVU56
 189 0084 0521     		movs	r1, #5
 190 0086 03A8     		add	r0, sp, #12
 191 0088 FFF7FEFF 		bl	HAL_RCC_ClockConfig
 192              	.LVL2:
 168:Core/Src/main.c ****   {
 193              		.loc 1 168 6 discriminator 1 view .LVU57
 194 008c 20B9     		cbnz	r0, .L8
 172:Core/Src/main.c **** 
 195              		.loc 1 172 1 view .LVU58
 196 008e 15B0     		add	sp, sp, #84
 197              	.LCFI2:
 198              		.cfi_remember_state
 199              		.cfi_def_cfa_offset 4
 200              		@ sp needed
 201 0090 5DF804FB 		ldr	pc, [sp], #4
 202              	.L7:
 203              	.LCFI3:
 204              		.cfi_restore_state
 156:Core/Src/main.c ****   }
 205              		.loc 1 156 5 is_stmt 1 view .LVU59
 206 0094 FFF7FEFF 		bl	Error_Handler
 207              	.LVL3:
 208              	.L8:
 170:Core/Src/main.c ****   }
 209              		.loc 1 170 5 view .LVU60
 210 0098 FFF7FEFF 		bl	Error_Handler
 211              	.LVL4:
 212              	.L10:
 213              		.align	2
 214              	.L9:
 215 009c 00380240 		.word	1073887232
 216 00a0 00700040 		.word	1073770496
 217              		.cfi_endproc
 218              	.LFE135:
 220              		.section	.rodata.main.str1.4,"aMS",%progbits,1
 221              		.align	2
 222              	.LC0:
 223 0000 48656C6C 		.ascii	"Hello guys\000"
ARM GAS  C:\Users\3kb\AppData\Local\Temp\ccoOmmoe.s 			page 26


 223      6F206775 
 223      797300
 224 000b 00       		.align	2
 225              	.LC1:
 226 000c 6D616B65 		.ascii	"makefile test\000"
 226      66696C65 
 226      20746573 
 226      7400
 227 001a 0000     		.align	2
 228              	.LC2:
 229 001c 62792033 		.ascii	"by 3kb bilibili\000"
 229      6B622062 
 229      696C6962 
 229      696C6900 
 230              		.align	2
 231              	.LC3:
 232 002c 73736431 		.ascii	"ssd1306 0.96'' OLED\000"
 232      33303620 
 232      302E3936 
 232      2727204F 
 232      4C454400 
 233              		.align	2
 234              	.LC4:
 235 0040 53544D33 		.ascii	"STM32F407VET6\000"
 235      32463430 
 235      37564554 
 235      3600
 236              		.section	.text.main,"ax",%progbits
 237              		.align	1
 238              		.global	main
 239              		.syntax unified
 240              		.thumb
 241              		.thumb_func
 243              	main:
 244              	.LFB134:
  68:Core/Src/main.c **** 
 245              		.loc 1 68 1 view -0
 246              		.cfi_startproc
 247              		@ args = 0, pretend = 0, frame = 0
 248              		@ frame_needed = 0, uses_anonymous_args = 0
 249 0000 30B5     		push	{r4, r5, lr}
 250              	.LCFI4:
 251              		.cfi_def_cfa_offset 12
 252              		.cfi_offset 4, -12
 253              		.cfi_offset 5, -8
 254              		.cfi_offset 14, -4
 255 0002 83B0     		sub	sp, sp, #12
 256              	.LCFI5:
 257              		.cfi_def_cfa_offset 24
  77:Core/Src/main.c **** 
 258              		.loc 1 77 3 view .LVU62
 259 0004 FFF7FEFF 		bl	HAL_Init
 260              	.LVL5:
  84:Core/Src/main.c **** 
 261              		.loc 1 84 3 view .LVU63
 262 0008 FFF7FEFF 		bl	SystemClock_Config
 263              	.LVL6:
ARM GAS  C:\Users\3kb\AppData\Local\Temp\ccoOmmoe.s 			page 27


  91:Core/Src/main.c ****   MX_I2C1_Init();
 264              		.loc 1 91 3 view .LVU64
 265 000c FFF7FEFF 		bl	MX_GPIO_Init
 266              	.LVL7:
  92:Core/Src/main.c ****   /* USER CODE BEGIN 2 */
 267              		.loc 1 92 3 view .LVU65
 268 0010 FFF7FEFF 		bl	MX_I2C1_Init
 269              	.LVL8:
  94:Core/Src/main.c ****   ssd1306_SetCursor(10,10);
 270              		.loc 1 94 3 view .LVU66
 271 0014 FFF7FEFF 		bl	ssd1306_Init
 272              	.LVL9:
  95:Core/Src/main.c ****   ssd1306_WriteString("Hello guys", Font_7x10, White);
 273              		.loc 1 95 3 view .LVU67
 274 0018 0A21     		movs	r1, #10
 275 001a 0846     		mov	r0, r1
 276 001c FFF7FEFF 		bl	ssd1306_SetCursor
 277              	.LVL10:
  96:Core/Src/main.c ****   ssd1306_SetCursor(10,20);
 278              		.loc 1 96 3 view .LVU68
 279 0020 294C     		ldr	r4, .L16
 280 0022 0125     		movs	r5, #1
 281 0024 0095     		str	r5, [sp]
 282 0026 94E80E00 		ldm	r4, {r1, r2, r3}
 283 002a 2848     		ldr	r0, .L16+4
 284 002c FFF7FEFF 		bl	ssd1306_WriteString
 285              	.LVL11:
  97:Core/Src/main.c ****   ssd1306_WriteString("makefile test", Font_7x10, White);
 286              		.loc 1 97 3 view .LVU69
 287 0030 1421     		movs	r1, #20
 288 0032 0A20     		movs	r0, #10
 289 0034 FFF7FEFF 		bl	ssd1306_SetCursor
 290              	.LVL12:
  98:Core/Src/main.c ****   ssd1306_SetCursor(10,30);
 291              		.loc 1 98 3 view .LVU70
 292 0038 0095     		str	r5, [sp]
 293 003a 94E80E00 		ldm	r4, {r1, r2, r3}
 294 003e 2448     		ldr	r0, .L16+8
 295 0040 FFF7FEFF 		bl	ssd1306_WriteString
 296              	.LVL13:
  99:Core/Src/main.c ****   ssd1306_WriteString("by 3kb bilibili", Font_7x10, White);
 297              		.loc 1 99 3 view .LVU71
 298 0044 1E21     		movs	r1, #30
 299 0046 0A20     		movs	r0, #10
 300 0048 FFF7FEFF 		bl	ssd1306_SetCursor
 301              	.LVL14:
 100:Core/Src/main.c ****   ssd1306_SetCursor(10,40);
 302              		.loc 1 100 3 view .LVU72
 303 004c 0095     		str	r5, [sp]
 304 004e 94E80E00 		ldm	r4, {r1, r2, r3}
 305 0052 2048     		ldr	r0, .L16+12
 306 0054 FFF7FEFF 		bl	ssd1306_WriteString
 307              	.LVL15:
 101:Core/Src/main.c ****   ssd1306_WriteString("ssd1306 0.96'' OLED", Font_6x8, White);
 308              		.loc 1 101 3 view .LVU73
 309 0058 2821     		movs	r1, #40
 310 005a 0A20     		movs	r0, #10
ARM GAS  C:\Users\3kb\AppData\Local\Temp\ccoOmmoe.s 			page 28


 311 005c FFF7FEFF 		bl	ssd1306_SetCursor
 312              	.LVL16:
 102:Core/Src/main.c ****   ssd1306_SetCursor(10,50); 
 313              		.loc 1 102 3 view .LVU74
 314 0060 1D4C     		ldr	r4, .L16+16
 315 0062 0095     		str	r5, [sp]
 316 0064 94E80E00 		ldm	r4, {r1, r2, r3}
 317 0068 1C48     		ldr	r0, .L16+20
 318 006a FFF7FEFF 		bl	ssd1306_WriteString
 319              	.LVL17:
 103:Core/Src/main.c ****   ssd1306_WriteString("STM32F407VET6", Font_6x8, White);
 320              		.loc 1 103 3 view .LVU75
 321 006e 3221     		movs	r1, #50
 322 0070 0A20     		movs	r0, #10
 323 0072 FFF7FEFF 		bl	ssd1306_SetCursor
 324              	.LVL18:
 104:Core/Src/main.c ****   ssd1306_UpdateScreen();
 325              		.loc 1 104 3 view .LVU76
 326 0076 0095     		str	r5, [sp]
 327 0078 94E80E00 		ldm	r4, {r1, r2, r3}
 328 007c 1848     		ldr	r0, .L16+24
 329 007e FFF7FEFF 		bl	ssd1306_WriteString
 330              	.LVL19:
 105:Core/Src/main.c ****   HAL_Delay(5000);
 331              		.loc 1 105 3 view .LVU77
 332 0082 FFF7FEFF 		bl	ssd1306_UpdateScreen
 333              	.LVL20:
 106:Core/Src/main.c ****   ssd1306_Reset();
 334              		.loc 1 106 3 view .LVU78
 335 0086 41F28830 		movw	r0, #5000
 336 008a FFF7FEFF 		bl	HAL_Delay
 337              	.LVL21:
 107:Core/Src/main.c ****   /* USER CODE END 2 */
 338              		.loc 1 107 3 view .LVU79
 339 008e FFF7FEFF 		bl	ssd1306_Reset
 340              	.LVL22:
 341 0092 17E0     		b	.L14
 342              	.LVL23:
 343              	.L13:
 344              	.LBB8:
 116:Core/Src/main.c **** 		ssd1306_DrawBitmap(0,0,nyanCat[i], 128,64, White);
 345              		.loc 1 116 3 view .LVU80
 346 0094 0020     		movs	r0, #0
 347 0096 FFF7FEFF 		bl	ssd1306_Fill
 348              	.LVL24:
 117:Core/Src/main.c **** 		ssd1306_UpdateScreen();
 349              		.loc 1 117 3 view .LVU81
 350 009a 0125     		movs	r5, #1
 351 009c 0195     		str	r5, [sp, #4]
 352 009e 4023     		movs	r3, #64
 353 00a0 0093     		str	r3, [sp]
 354 00a2 8023     		movs	r3, #128
 355 00a4 0F4A     		ldr	r2, .L16+28
 356 00a6 52F82420 		ldr	r2, [r2, r4, lsl #2]
 357 00aa 0021     		movs	r1, #0
 358 00ac 0846     		mov	r0, r1
 359 00ae FFF7FEFF 		bl	ssd1306_DrawBitmap
ARM GAS  C:\Users\3kb\AppData\Local\Temp\ccoOmmoe.s 			page 29


 360              	.LVL25:
 118:Core/Src/main.c **** 		HAL_Delay(1);
 361              		.loc 1 118 3 view .LVU82
 362 00b2 FFF7FEFF 		bl	ssd1306_UpdateScreen
 363              	.LVL26:
 119:Core/Src/main.c **** 	  }
 364              		.loc 1 119 3 view .LVU83
 365 00b6 2846     		mov	r0, r5
 366 00b8 FFF7FEFF 		bl	HAL_Delay
 367              	.LVL27:
 114:Core/Src/main.c **** 	  {
 368              		.loc 1 114 34 discriminator 3 view .LVU84
 369 00bc 2C44     		add	r4, r4, r5
 370              	.LVL28:
 114:Core/Src/main.c **** 	  {
 371              		.loc 1 114 34 is_stmt 0 discriminator 3 view .LVU85
 372 00be E4B2     		uxtb	r4, r4
 373              	.LVL29:
 374              	.L12:
 114:Core/Src/main.c **** 	  {
 375              		.loc 1 114 26 is_stmt 1 discriminator 1 view .LVU86
 376 00c0 0E2C     		cmp	r4, #14
 377 00c2 E7D9     		bls	.L13
 378              	.LVL30:
 379              	.L14:
 114:Core/Src/main.c **** 	  {
 380              		.loc 1 114 26 is_stmt 0 discriminator 1 view .LVU87
 381              	.LBE8:
 112:Core/Src/main.c ****   {
 382              		.loc 1 112 3 is_stmt 1 view .LVU88
 114:Core/Src/main.c **** 	  {
 383              		.loc 1 114 5 view .LVU89
 384              	.LBB9:
 114:Core/Src/main.c **** 	  {
 385              		.loc 1 114 9 view .LVU90
 114:Core/Src/main.c **** 	  {
 386              		.loc 1 114 17 is_stmt 0 view .LVU91
 387 00c4 0024     		movs	r4, #0
 114:Core/Src/main.c **** 	  {
 388              		.loc 1 114 5 view .LVU92
 389 00c6 FBE7     		b	.L12
 390              	.L17:
 391              		.align	2
 392              	.L16:
 393 00c8 00000000 		.word	Font_7x10
 394 00cc 00000000 		.word	.LC0
 395 00d0 0C000000 		.word	.LC1
 396 00d4 1C000000 		.word	.LC2
 397 00d8 00000000 		.word	Font_6x8
 398 00dc 2C000000 		.word	.LC3
 399 00e0 40000000 		.word	.LC4
 400 00e4 00000000 		.word	nyanCat
 401              	.LBE9:
 402              		.cfi_endproc
 403              	.LFE134:
 405              		.global	nyanCat
 406              		.section	.data.nyanCat,"aw"
ARM GAS  C:\Users\3kb\AppData\Local\Temp\ccoOmmoe.s 			page 30


 407              		.align	2
 410              	nyanCat:
 411 0000 00000000 		.word	nyan_cat_00
 412 0004 00000000 		.word	nyan_cat_01
 413 0008 00000000 		.word	nyan_cat_02
 414 000c 00000000 		.word	nyan_cat_03
 415 0010 00000000 		.word	nyan_cat_04
 416 0014 00000000 		.word	nyan_cat_05
 417 0018 00000000 		.word	nyan_cat_06
 418 001c 00000000 		.word	nyan_cat_07
 419 0020 00000000 		.word	nyan_cat_08
 420 0024 00000000 		.word	nyan_cat_09
 421 0028 00000000 		.word	nyan_cat_10
 422 002c 00000000 		.word	nyan_cat_11
 423 0030 00000000 		.word	nyan_cat_12
 424 0034 00000000 		.word	nyan_cat_13
 425 0038 00000000 		.word	nyan_cat_14
 426              		.global	nyan_cat_14
 427              		.section	.rodata.nyan_cat_14,"a"
 428              		.align	2
 431              	nyan_cat_14:
 432 0000 FFFFFFFF 		.ascii	"\377\377\377\377\377\377\377\377\377\377\377\377\377"
 432      FFFFFFFF 
 432      FFFFFFFF 
 432      FF
 433 000d FFFFFFFF 		.ascii	"\377\377\377\377\377\377\377\307\370\377\377\377\377"
 433      FFFFFFC7 
 433      F8FFFFFF 
 433      FF
 434 001a FFFFFFFF 		.ascii	"\377\377\377\377\377\377\377\377\377\377\303\370\377"
 434      FFFFFFFF 
 434      FFFFC3F8 
 434      FF
 435 0027 FFFFFFFF 		.ascii	"\377\377\377\377\377\377\377\377\377\377\377\377\377"
 435      FFFFFFFF 
 435      FFFFFFFF 
 435      FF
 436 0034 C7F8FFFF 		.ascii	"\307\370\377\377\377\377\377\377\377\377\377\377\377"
 436      FFFFFFFF 
 436      FFFFFFFF 
 436      FF
 437 0041 FFFFFFFF 		.ascii	"\377\377\377\377\037\377\377\377\377\377\377\377\377"
 437      1FFFFFFF 
 437      FFFFFFFF 
 437      FF
 438 004e FFFFFFFF 		.ascii	"\377\377\377\377\377\377\376\037\377\377\377\377\377"
 438      FFFFFE1F 
 438      FFFFFFFF 
 438      FF
 439 005b FFFFFFFF 		.ascii	"\377\377\377\377\377\177\377\377\377\376\037\377\277"
 439      FF7FFFFF 
 439      FFFE1FFF 
 439      BF
 440 0068 FFFFFFFF 		.ascii	"\377\377\377\377\377\377\377\377\000\000\377\377\370"
 440      FFFFFFFF 
 440      0000FFFF 
 440      F8
ARM GAS  C:\Users\3kb\AppData\Local\Temp\ccoOmmoe.s 			page 31


 441 0075 C0003FFF 		.ascii	"\300\000?\377\377\377\377\377\377\377\377\177\374\377"
 441      FFFFFFFF 
 441      FFFFFF7F 
 441      FCFF
 442 0083 FFFFFFFF 		.ascii	"\377\377\377\377?\377\377\377\377\377\377\377\377\177"
 442      3FFFFFFF 
 442      FFFFFFFF 
 442      FF7F
 443 0091 FE000003 		.ascii	"\376\000\000\003\377\377\300\000\000\000\000\000\377"
 443      FFFFC000 
 443      00000000 
 443      FF
 444 009e FFFF7FFF 		.ascii	"\377\377\177\377\000\000\003\377\377\300\000\000\000"
 444      000003FF 
 444      FFC00000 
 444      00
 445 00ab 0000FFFF 		.ascii	"\000\000\377\377\377\177\377\377\377\377\377\367\300"
 445      FF7FFFFF 
 445      FFFFFFF7 
 445      C0
 446 00b8 00000000 		.ascii	"\000\000\000\000\000\377\377\377\177\377\377\377\377"
 446      00FFFFFF 
 446      7FFFFFFF 
 446      FF
 447 00c5 FFB70000 		.ascii	"\377\267\000\000\000\000\000\000\037\377\377\177\377"
 447      00000000 
 447      1FFFFF7F 
 447      FF
 448 00d2 FFFFFFFF 		.ascii	"\377\377\377\377\367\000\000\000\000\000\000\037\377"
 448      F7000000 
 448      0000001F 
 448      FF
 449 00df FF0000FF 		.ascii	"\377\000\000\377\377\370\000\007\000\000\000\000\000"
 449      FFF80007 
 449      00000000 
 449      00
 450 00ec 001FFFFF 		.ascii	"\000\037\377\377\000\000\177\377\360\000\007\000\000"
 450      00007FFF 
 450      F0000700 
 450      00
 451 00f9 02000000 		.ascii	"\002\000\000\000\037\377\377\000\000\000\000\000\000"
 451      1FFFFF00 
 451      00000000 
 451      00
 452 0106 07000000 		.ascii	"\007\000\000\000\000\000\000\037\377\377\000\000\000"
 452      0000001F 
 452      FFFF0000 
 452      00
 453 0113 00000007 		.ascii	"\000\000\000\007\000\000\000\000\000\000\037\377\377"
 453      00000000 
 453      00001FFF 
 453      FF
 454 0120 00000000 		.ascii	"\000\000\000\000\000\000\007\000\000\000\000\000\000"
 454      00000700 
 454      00000000 
 454      00
 455 012d 1FFFFF00 		.ascii	"\037\377\377\000\000\000\000\000\000\007\000\000\000"
ARM GAS  C:\Users\3kb\AppData\Local\Temp\ccoOmmoe.s 			page 32


 455      00000000 
 455      00070000 
 455      00
 456 013a 0000001F 		.ascii	"\000\000\000\037\377\377\000\000\000\000\000\000\007"
 456      FFFF0000 
 456      00000000 
 456      07
 457 0147 00000000 		.ascii	"\000\000\000\000x\000\037\377\377\000\000\000\000\000"
 457      78001FFF 
 457      FF000000 
 457      0000
 458 0155 00070000 		.ascii	"\000\007\000\000\000\000\370@\037\377\377\000\000\000"
 458      0000F840 
 458      1FFFFF00 
 458      0000
 459 0163 00000007 		.ascii	"\000\000\000\007\000\000\000\000\370\000\037\377\377"
 459      00000000 
 459      F8001FFF 
 459      FF
 460 0170 00000000 		.ascii	"\000\000\000\000\000\000\003\000\000\000\003\006\000"
 460      00000300 
 460      00000306 
 460      00
 461 017d 1FE0FF00 		.ascii	"\037\340\377\000\000\000\000\000\000\003\000\000\000"
 461      00000000 
 461      00030000 
 461      00
 462 018a 0707001F 		.ascii	"\007\007\000\037\340\377\000\000\000\000\000\000\003"
 462      E0FF0000 
 462      00000000 
 462      03
 463 0197 00000007 		.ascii	"\000\000\000\007\000\000\037\000\377\000\000\000\000"
 463      00001F00 
 463      FF000000 
 463      00
 464 01a4 00000300 		.ascii	"\000\000\003\000\000\000\007\000\340\037\000\377\000"
 464      00000700 
 464      E01F00FF 
 464      00
 465 01b1 00000000 		.ascii	"\000\000\000\000\000\003\000\000\000\007\000\300\037"
 465      00030000 
 465      000700C0 
 465      1F
 466 01be 00FF0000 		.ascii	"\000\377\000\000\000\000\000\000\003\000\000\000\007"
 466      00000000 
 466      03000000 
 466      07
 467 01cb 001FF800 		.ascii	"\000\037\370\000\377\000\000\000\000\000\000\003\000"
 467      FF000000 
 467      00000003 
 467      00
 468 01d8 00000700 		.ascii	"\000\000\007\000\037\370\000\377\000\000\000\000\000"
 468      1FF800FF 
 468      00000000 
 468      00
 469 01e5 00030000 		.ascii	"\000\003\000\000\000\007\000\037\370\000\377\000\000"
 469      0007001F 
ARM GAS  C:\Users\3kb\AppData\Local\Temp\ccoOmmoe.s 			page 33


 469      F800FF00 
 469      00
 470 01f2 00000000 		.ascii	"\000\000\000\000\007\000\000\000\007\000\000\000\000"
 470      07000000 
 470      07000000 
 470      00
 471 01ff FF000000 		.ascii	"\377\000\000\000\000\000\000\007\000\000\000\007\000"
 471      00000007 
 471      00000007 
 471      00
 472 020c 000000FF 		.ascii	"\000\000\000\377\000\000\000\000\000\000\017\000\000"
 472      00000000 
 472      00000F00 
 472      00
 473 0219 00000000 		.ascii	"\000\000\000\000\000\000?\000\000\000\000\000\000\377"
 473      00003F00 
 473      00000000 
 473      00FF
 474 0227 00000218 		.ascii	"\000\000\002\030\000\000\000\000\037\000\000\000\000"
 474      00000000 
 474      1F000000 
 474      00
 475 0234 0000FF00 		.ascii	"\000\000\377\000\000\000\030\000\000\000\000\037\000"
 475      00001800 
 475      0000001F 
 475      00
 476 0241 00000000 		.ascii	"\000\000\000\000\037\007\000\000\000\030\000\300\000"
 476      1F070000 
 476      001800C0 
 476      00
 477 024e 181F0000 		.ascii	"\030\037\000\000\000\000\000\037\007\000\000\000\030"
 477      0000001F 
 477      07000000 
 477      18
 478 025b 00E00018 		.ascii	"\000\340\000\030\037\000\000\000\000\000\037\007\000"
 478      1F000000 
 478      00001F07 
 478      00
 479 0268 00001800 		.ascii	"\000\000\030\000\340\000\034\037\000\000\000\000\000"
 479      E0001C1F 
 479      00000000 
 479      00
 480 0275 E0070000 		.ascii	"\340\007\000\000\000\030\007\340\030\374\037\000\000"
 480      001807E0 
 480      18FC1F00 
 480      00
 481 0282 000000E0 		.ascii	"\000\000\000\340\007\000\000\000\030\007\340\030\370"
 481      07000000 
 481      1807E018 
 481      F8
 482 028f 1F000000 		.ascii	"\037\000\000\000\000\007\303\347\000\000\000\030\002"
 482      0007C3E7 
 482      00000018 
 482      02
 483 029c 4018081F 		.ascii	"@\030\010\037\000\000\000\000\007\007\377\000\000@\030"
 483      00000000 
 483      0707FF00 
ARM GAS  C:\Users\3kb\AppData\Local\Temp\ccoOmmoe.s 			page 34


 483      004018
 484 02ab 00000000 		.ascii	"\000\000\000\000\037\000\000\000\000\007\007\377\000"
 484      1F000000 
 484      000707FF 
 484      00
 485 02b8 00001800 		.ascii	"\000\000\030\000\000\000\000\037\000\000\000\000\007"
 485      0000001F 
 485      00000000 
 485      07
 486 02c5 07070000 		.ascii	"\007\007\000\000\000\030\000\300\300\340\037\000\000"
 486      001800C0 
 486      C0E01F00 
 486      00
 487 02d2 00000707 		.ascii	"\000\000\007\007\007\000@\000\030\000\340\340\340\037"
 487      07004000 
 487      1800E0E0 
 487      E01F
 488 02e0 00000000 		.ascii	"\000\000\000\000\007\007\007\000\000\000\030\000\340"
 488      07070700 
 488      00001800 
 488      E0
 489 02ed E0E03F00 		.ascii	"\340\340?\000\000\000\000\001\374\007\000\000\000\007"
 489      00000001 
 489      FC070000 
 489      0007
 490 02fb 00FFFFE0 		.ascii	"\000\377\377\340\377\000\000\000\000\001\374\007\000"
 490      FF000000 
 490      0001FC07 
 490      00
 491 0308 00000700 		.ascii	"\000\000\007\000\377\377\340\377\000\000\000\000\000"
 491      FFFFE0FF 
 491      00000000 
 491      00
 492 0315 FC070000 		.ascii	"\374\007\000\000\000\000@\177\373\301\377\000\000\000"
 492      0000407F 
 492      FBC1FF00 
 492      0000
 493 0323 00000007 		.ascii	"\000\000\000\007\300\000\000\000\340\000\000\007\377"
 493      C0000000 
 493      E0000007 
 493      FF
 494 0330 00000000 		.ascii	"\000\000\000\000\000\000\037\300\000\000\000\340\000"
 494      00001FC0 
 494      000000E0 
 494      00
 495 033d 0007FF00 		.ascii	"\000\007\377\000\000\000\000\000\0008\037\377\377\377"
 495      00000000 
 495      00381FFF 
 495      FFFF
 496 034b FFFFFFFF 		.ascii	"\377\377\377\377\377\000\000\000\000\000\0008?\377\377"
 496      FF000000 
 496      00000038 
 496      3FFFFF
 497 035a FFFFFFFF 		.ascii	"\377\377\377\377\377\377\177\377\000\000\007\377\370"
 497      FFFF7FFF 
 497      000007FF 
 497      F8
ARM GAS  C:\Users\3kb\AppData\Local\Temp\ccoOmmoe.s 			page 35


 498 0367 3FFFFF87 		.ascii	"?\377\377\207?\377\377\377\377\377\377\200\000\007\377"
 498      3FFFFFFF 
 498      FFFFFF80 
 498      0007FF
 499 0376 F81FE0FF 		.ascii	"\370\037\340\377\003\030\037\340\377\377\377\377\000"
 499      03181FE0 
 499      FFFFFFFF 
 499      00
 500 0383 0007FFF8 		.ascii	"\000\007\377\370\037\340\377\003\030\037\300\377\377"
 500      1FE0FF03 
 500      181FC0FF 
 500      FF
 501 0390 FFFFFFFF 		.ascii	"\377\377\377\377\377\377\374?\340\377\000\030\037\341"
 501      FFFFFC3F 
 501      E0FF0018 
 501      1FE1
 502 039e FFFFFFFF 		.ascii	"\377\377\377\377\377\377\377\377\377\377\377\377\370"
 502      FFFFFFFF 
 502      FFFFFFFF 
 502      F8
 503 03ab FFFFFFFF 		.ascii	"\377\377\377\377\377\377\377\377\377\377\377\377\377"
 503      FFFFFFFF 
 503      FFFFFFFF 
 503      FF
 504 03b8 FFFFF8FF 		.ascii	"\377\377\370\377\377\377\377\377\377\377\377\377\377"
 504      FFFFFFFF 
 504      FFFFFFFF 
 504      FF
 505 03c5 FFFFFFFF 		.ascii	"\377\377\377\377\377\370\377\377\377\377\377\377\377"
 505      FFF8FFFF 
 505      FFFFFFFF 
 505      FF
 506 03d2 FFFFFFFF 		.ascii	"\377\377\377\377\377\377\377\377\370\377\377\377\377"
 506      FFFFFFFF 
 506      F8FFFFFF 
 506      FF
 507 03df FFFFFFFF 		.ascii	"\377\377\377\377\377\377\377\377\377\377\377\370\377"
 507      FFFFFFFF 
 507      FFFFFFF8 
 507      FF
 508 03ec FFFFFFFF 		.ascii	"\377\377\377\377\377\377\377\377\377\377\377\377\377"
 508      FFFFFFFF 
 508      FFFFFFFF 
 508      FF
 509 03f9 FFFFFFFF 		.ascii	"\377\377\377\377\377\377\377"
 509      FFFFFF
 510              		.global	nyan_cat_13
 511              		.section	.rodata.nyan_cat_13,"a"
 512              		.align	2
 515              	nyan_cat_13:
 516 0000 FFFFFFFF 		.ascii	"\377\377\377\377\377\377\377\377\377\377\377\377\377"
 516      FFFFFFFF 
 516      FFFFFFFF 
 516      FF
 517 000d FFFFFFFF 		.ascii	"\377\377\377\377\377\377\377\377\377\377\377\037\377"
 517      FFFFFFFF 
 517      FFFFFF1F 
ARM GAS  C:\Users\3kb\AppData\Local\Temp\ccoOmmoe.s 			page 36


 517      FF
 518 001a FFFFFFFF 		.ascii	"\377\377\377\377\377\377\377\377\377\377\377\377\377"
 518      FFFFFFFF 
 518      FFFFFFFF 
 518      FF
 519 0027 FF1FFFFF 		.ascii	"\377\037\377\377\377\377\377\377\377\377\377\377\377"
 519      FFFFFFFF 
 519      FFFFFFFF 
 519      FF
 520 0034 FFFFFFFF 		.ascii	"\377\377\377\377\037\377\377\377\377\377\377\377\377"
 520      1FFFFFFF 
 520      FFFFFFFF 
 520      FF
 521 0041 FFFFFFFF 		.ascii	"\377\377\377\377\377\377\377\037\377\377\377\377\377"
 521      FFFFFF1F 
 521      FFFFFFFF 
 521      FF
 522 004e FFFFFFFF 		.ascii	"\377\377\377\377\377\377\377\377\377\376\037\377\377"
 522      FFFFFFFF 
 522      FFFE1FFF 
 522      FF
 523 005b FFFFFFFF 		.ascii	"\377\377\377\377\377\177\375\377\377\377\377\377\277"
 523      FF7FFDFF 
 523      FFFFFFFF 
 523      BF
 524 0068 3FFFFFFF 		.ascii	"?\377\377\377\377\377\377\377\000\000\377\377\370\000"
 524      FFFFFFFF 
 524      0000FFFF 
 524      F800
 525 0076 003FFFFF 		.ascii	"\000?\377\377\377\377\377\377\377\377\177\374\377\377"
 525      FFFFFFFF 
 525      FFFF7FFC 
 525      FFFF
 526 0084 FFFFFF3F 		.ascii	"\377\377\377?\377\377\377\377\377\377\377\377\177\376"
 526      FFFFFFFF 
 526      FFFFFFFF 
 526      7FFE
 527 0092 000003FF 		.ascii	"\000\000\003\377\377\300\000\000\000\000\000\377\377"
 527      FFC00000 
 527      000000FF 
 527      FF
 528 009f FF7FFF00 		.ascii	"\377\177\377\000\000\003\377\377\300\000\000\000\000"
 528      0003FFFF 
 528      C0000000 
 528      00
 529 00ac 00FFFFFF 		.ascii	"\000\377\377\377\177\377\377\377\377\377\367\300\000"
 529      7FFFFFFF 
 529      FFFFF7C0 
 529      00
 530 00b9 00000000 		.ascii	"\000\000\000\000\377\377\377\177\377\377\377\377\377"
 530      FFFFFF7F 
 530      FFFFFFFF 
 530      FF
 531 00c6 F7000000 		.ascii	"\367\000\000\000\000\000\000\037\377\377\177\377\377"
 531      0000001F 
 531      FFFF7FFF 
 531      FF
ARM GAS  C:\Users\3kb\AppData\Local\Temp\ccoOmmoe.s 			page 37


 532 00d3 FFFFFFF7 		.ascii	"\377\377\377\367\000\000\000\000\000\000\037\377\377"
 532      00000000 
 532      00001FFF 
 532      FF
 533 00e0 0000FFFF 		.ascii	"\000\000\377\377\370\000\007\000\000\000\000\000\000"
 533      F8000700 
 533      00000000 
 533      00
 534 00ed 1FFFFF00 		.ascii	"\037\377\377\000\000\177\377\360\000\007\000\000\002"
 534      007FFFF0 
 534      00070000 
 534      02
 535 00fa 0000001F 		.ascii	"\000\000\000\037\377\377\000\000\000\000\000\000\007"
 535      FFFF0000 
 535      00000000 
 535      07
 536 0107 00000000 		.ascii	"\000\000\000\000\000\000\037\377\377\000\000\000\000"
 536      00001FFF 
 536      FF000000 
 536      00
 537 0114 00000700 		.ascii	"\000\000\007\000\000\000\000\000\000\037\377\377\000"
 537      00000000 
 537      001FFFFF 
 537      00
 538 0121 00000000 		.ascii	"\000\000\000\000\000\007\000\000\000\000\000\000\037"
 538      00070000 
 538      00000000 
 538      1F
 539 012e FFFF0000 		.ascii	"\377\377\000\000\000\000\000\000\007\000\000\000\000"
 539      00000000 
 539      07000000 
 539      00
 540 013b 00001FFF 		.ascii	"\000\000\037\377\377\000\000\000\000\000\000\007\000"
 540      FF000000 
 540      00000007 
 540      00
 541 0148 00000078 		.ascii	"\000\000\000x\000\037\377\377\000\000\000\000\000\000"
 541      001FFFFF 
 541      00000000 
 541      0000
 542 0156 07000000 		.ascii	"\007\000\000\000\000\370@\037\377\377\000\000\000\000"
 542      00F8401F 
 542      FFFF0000 
 542      0000
 543 0164 00000700 		.ascii	"\000\000\007\000\000\000\000\370\000\037\377\377\000"
 543      000000F8 
 543      001FFFFF 
 543      00
 544 0171 00000000 		.ascii	"\000\000\000\000\000\003\000\000\000\003\006\000\037"
 544      00030000 
 544      00030600 
 544      1F
 545 017e E0FF0000 		.ascii	"\340\377\000\000\000\000\000\000\003\000\000\000\007"
 545      00000000 
 545      03000000 
 545      07
 546 018b 07001FE0 		.ascii	"\007\000\037\340\377\000\000\000\000\000\000\003\000"
ARM GAS  C:\Users\3kb\AppData\Local\Temp\ccoOmmoe.s 			page 38


 546      FF000000 
 546      00000003 
 546      00
 547 0198 00000700 		.ascii	"\000\000\007\000\000\037\000\377\000\000\000\000\000"
 547      001F00FF 
 547      00000000 
 547      00
 548 01a5 00030000 		.ascii	"\000\003\000\000\000\007\000\340\037\000\377\000\000"
 548      000700E0 
 548      1F00FF00 
 548      00
 549 01b2 00000000 		.ascii	"\000\000\000\000\003\000\000\000\007\000\300\037\000"
 549      03000000 
 549      0700C01F 
 549      00
 550 01bf FF000000 		.ascii	"\377\000\000\000\000\000\000\003\000\000\000\007\000"
 550      00000003 
 550      00000007 
 550      00
 551 01cc 1FF800FF 		.ascii	"\037\370\000\377\000\000\000\000\000\000\003\000\000"
 551      00000000 
 551      00000300 
 551      00
 552 01d9 0007001F 		.ascii	"\000\007\000\037\370\000\377\000\000\000\000\000\000"
 552      F800FF00 
 552      00000000 
 552      00
 553 01e6 03000000 		.ascii	"\003\000\000\000\007\000\037\370\000\377\000\000\000"
 553      07001FF8 
 553      00FF0000 
 553      00
 554 01f3 00000007 		.ascii	"\000\000\000\007\000\000\000\007\000\000\000\000\377"
 554      00000007 
 554      00000000 
 554      FF
 555 0200 00000000 		.ascii	"\000\000\000\000\000\000\007\000\000\000\007\000\000"
 555      00000700 
 555      00000700 
 555      00
 556 020d 0000FF00 		.ascii	"\000\000\377\000\000\000\000\000\000\017\000\000\000"
 556      00000000 
 556      000F0000 
 556      00
 557 021a 00000000 		.ascii	"\000\000\000\000\000?\000\000\000\000\000\000\037\000"
 557      003F0000 
 557      00000000 
 557      1F00
 558 0228 00021800 		.ascii	"\000\002\030\000\000\000\000\037\000\000\000\000\000"
 558      0000001F 
 558      00000000 
 558      00
 559 0235 003F0000 		.ascii	"\000?\000\000\000\030\000\000\000\000\037\000\000\000"
 559      00180000 
 559      00001F00 
 559      0000
 560 0243 00001FFF 		.ascii	"\000\000\037\377\000\000\000\030\000\300\000\030\037"
 560      00000018 
ARM GAS  C:\Users\3kb\AppData\Local\Temp\ccoOmmoe.s 			page 39


 560      00C00018 
 560      1F
 561 0250 00000000 		.ascii	"\000\000\000\000\000\037\377\000\000\000\030\000\340"
 561      001FFF00 
 561      00001800 
 561      E0
 562 025d 00181F00 		.ascii	"\000\030\037\000\000\000\000\000\037\377\000\000\000"
 562      00000000 
 562      1FFF0000 
 562      00
 563 026a 1800E000 		.ascii	"\030\000\340\000\030\037\000\000\000\000\007\340\007"
 563      181F0000 
 563      000007E0 
 563      07
 564 0277 00000018 		.ascii	"\000\000\000\030\007\340\030\370\037\000\000\000\000"
 564      07E018F8 
 564      1F000000 
 564      00
 565 0284 07E00700 		.ascii	"\007\340\007\000\000\000\030\007\3408\370\037\000\000"
 565      00001807 
 565      E038F81F 
 565      0000
 566 0292 000007C0 		.ascii	"\000\000\007\300o\000\000\000\030\002@\030H\037\000"
 566      6F000000 
 566      18024018 
 566      481F00
 567 02a1 00000007 		.ascii	"\000\000\000\007\000\377\000\000@\030\000\000\000\000"
 567      00FF0000 
 567      40180000 
 567      0000
 568 02af 1F000000 		.ascii	"\037\000\000\000\000\007\000\377\000\000\000\030\000"
 568      000700FF 
 568      00000018 
 568      00
 569 02bc 0000001F 		.ascii	"\000\000\000\037\000\000\000\000\001\377\347\000\000"
 569      00000000 
 569      01FFE700 
 569      00
 570 02c9 001800E0 		.ascii	"\000\030\000\340\300\300\037\000\000\000\000\000\377"
 570      C0C01F00 
 570      00000000 
 570      FF
 571 02d6 E7004000 		.ascii	"\347\000@\000\030\000\340\340\340\037\000\000\000\000"
 571      1800E0E0 
 571      E01F0000 
 571      0000
 572 02e4 00FFE700 		.ascii	"\000\377\347\000\000\000\030\000\340\340\340\037\000"
 572      00001800 
 572      E0E0E01F 
 572      00
 573 02f1 00000000 		.ascii	"\000\000\000\000\000\007\000\000\000\007\000\377\377"
 573      00070000 
 573      000700FF 
 573      FF
 574 02fe E0FF0000 		.ascii	"\340\377\000\000\000\000\000\000\007\000\000\000\007"
 574      00000000 
 574      07000000 
ARM GAS  C:\Users\3kb\AppData\Local\Temp\ccoOmmoe.s 			page 40


 574      07
 575 030b 00FFFFE0 		.ascii	"\000\377\377\340\377\000\000\000\000\000\000\007\000"
 575      FF000000 
 575      00000007 
 575      00
 576 0318 000000C0 		.ascii	"\000\000\000\300\177\377\301\377\000\000\000\000\000"
 576      7FFFC1FF 
 576      00000000 
 576      00
 577 0325 0007C000 		.ascii	"\000\007\300\000\000\000\340\000\000\007\377\000\000"
 577      0000E000 
 577      0007FF00 
 577      00
 578 0332 00000000 		.ascii	"\000\000\000\000\007\300\000\000\000\340\000\000\007"
 578      07C00000 
 578      00E00000 
 578      07
 579 033f FF000000 		.ascii	"\377\000\000\000\000\000\000\007\037\377\377\377\377"
 579      00000007 
 579      1FFFFFFF 
 579      FF
 580 034c FFFFFFFF 		.ascii	"\377\377\377\377\000\000\000\000\000\000\007?\377\377"
 580      00000000 
 580      0000073F 
 580      FFFF
 581 035a FFFFFFFF 		.ascii	"\377\377\377\377\377\377\177\377\000\000\007\377\377"
 581      FFFF7FFF 
 581      000007FF 
 581      FF
 582 0367 1FFFFFFF 		.ascii	"\037\377\377\377\377\377?\377\377\377\377\200\000\007"
 582      FFFF3FFF 
 582      FFFFFF80 
 582      0007
 583 0375 FFFF07F8 		.ascii	"\377\377\007\370\037\377\377\007\030\037\377\377\377"
 583      1FFFFF07 
 583      181FFFFF 
 583      FF
 584 0382 000007FF 		.ascii	"\000\000\007\377\377\007\370\037\377\377\007\030\037"
 584      FF07F81F 
 584      FFFF0718 
 584      1F
 585 038f FFFFFFFF 		.ascii	"\377\377\377\377\377\377\377\377\007\370?\377\377\007"
 585      FFFFFFFF 
 585      07F83FFF 
 585      FF07
 586 039d 1C3FFFFF 		.ascii	"\034?\377\377\377\377\377\377\377\377\377\377\377\377"
 586      FFFFFFFF 
 586      FFFFFFFF 
 586      FFFF
 587 03ab FFFFFFFF 		.ascii	"\377\377\377\377\377\377\377\377\377\377\377\377\377"
 587      FFFFFFFF 
 587      FFFFFFFF 
 587      FF
 588 03b8 FFFFFFFF 		.ascii	"\377\377\377\377\377\377\377\377\377\377\377\377\377"
 588      FFFFFFFF 
 588      FFFFFFFF 
 588      FF
ARM GAS  C:\Users\3kb\AppData\Local\Temp\ccoOmmoe.s 			page 41


 589 03c5 FFFFFFFF 		.ascii	"\377\377\377\377\377\377\377\377\377\377\377\377\377"
 589      FFFFFFFF 
 589      FFFFFFFF 
 589      FF
 590 03d2 FFFFFFFF 		.ascii	"\377\377\377\377\377\377\377\377\377\377\377\377\377"
 590      FFFFFFFF 
 590      FFFFFFFF 
 590      FF
 591 03df FFFFFFFF 		.ascii	"\377\377\377\377\377\377\377\377\377\377\377\377\377"
 591      FFFFFFFF 
 591      FFFFFFFF 
 591      FF
 592 03ec FFFFFFFF 		.ascii	"\377\377\377\377\377\377\377\377\377\377\377\377\377"
 592      FFFFFFFF 
 592      FFFFFFFF 
 592      FF
 593 03f9 FFFFFFFF 		.ascii	"\377\377\377\377\377\377\377"
 593      FFFFFF
 594              		.global	nyan_cat_12
 595              		.section	.rodata.nyan_cat_12,"a"
 596              		.align	2
 599              	nyan_cat_12:
 600 0000 FFFFFFFF 		.ascii	"\377\377\377\377\377\377\377\377\377\377\370\377\377"
 600      FFFFFFFF 
 600      FFFFF8FF 
 600      FF
 601 000d FFFFFFFF 		.ascii	"\377\377\377\377\377\377\377\377\377\377\377\377\377"
 601      FFFFFFFF 
 601      FFFFFFFF 
 601      FF
 602 001a F8FFFFFF 		.ascii	"\370\377\377\377\377\377\377\377\377\377\377\377\377"
 602      FFFFFFFF 
 602      FFFFFFFF 
 602      FF
 603 0027 FFFFFFF8 		.ascii	"\377\377\377\370\377\377\377\377\377\377\377\377\377"
 603      FFFFFFFF 
 603      FFFFFFFF 
 603      FF
 604 0034 FFFFFFFF 		.ascii	"\377\377\377\377\377\377\370\377\377\377\377\377\377"
 604      FFFFF8FF 
 604      FFFFFFFF 
 604      FF
 605 0041 FFFFFFFF 		.ascii	"\377\377\377\377\377\377\377\377\377\377\377\377\377"
 605      FFFFFFFF 
 605      FFFFFFFF 
 605      FF
 606 004e FFFFFFFF 		.ascii	"\377\377\377\377\377\377\377\377\377\377\377\377\377"
 606      FFFFFFFF 
 606      FFFFFFFF 
 606      FF
 607 005b FFFFFFFF 		.ascii	"\377\377\377\377\377\377\377\377\377\377\377\377\340"
 607      FFFFFFFF 
 607      FFFFFFFF 
 607      E0
 608 0068 00000000 		.ascii	"\000\000\000\000\000\377\377\377\377\370\000\000\037"
 608      00FFFFFF 
 608      FFF80000 
ARM GAS  C:\Users\3kb\AppData\Local\Temp\ccoOmmoe.s 			page 42


 608      1F
 609 0075 FFFFC000 		.ascii	"\377\377\300\000\000\000\000\000\377\377\377\377\375"
 609      00000000 
 609      FFFFFFFF 
 609      FD
 610 0082 FFFF9FFF 		.ascii	"\377\377\237\377\377\300\000\000\000\000\000\377\377"
 610      FFC00000 
 610      000000FF 
 610      FF
 611 008f FF0007FF 		.ascii	"\377\000\007\377\377\300\000\007\000\000\000\000\000"
 611      FFC00007 
 611      00000000 
 611      00
 612 009c 001FFFFF 		.ascii	"\000\037\377\377\000\007\377\377\340\000\007\000\000"
 612      0007FFFF 
 612      E0000700 
 612      00
 613 00a9 00000000 		.ascii	"\000\000\000\000\037\377\377\177\377\377\377\377\377"
 613      1FFFFF7F 
 613      FFFFFFFF 
 613      FF
 614 00b6 F7000000 		.ascii	"\367\000\000\000\000\000\000\037\377\377\177\377\377"
 614      0000001F 
 614      FFFF7FFF 
 614      FF
 615 00c3 FFFFFFF7 		.ascii	"\377\377\377\367\000\000\000\000\000\000\037\377\377"
 615      00000000 
 615      00001FFF 
 615      FF
 616 00d0 7FFFFFFF 		.ascii	"\177\377\377\377\377\377\367\000\000\002\000\000\000"
 616      FFFFF700 
 616      00020000 
 616      00
 617 00dd 1FFFFF7F 		.ascii	"\037\377\377\177\370\000\000\037\377\367\000\000\000"
 617      F800001F 
 617      FFF70000 
 617      00
 618 00ea 0000001F 		.ascii	"\000\000\000\037\377\377\177\370\000\000\037\377\367"
 618      FFFF7FF8 
 618      00001FFF 
 618      F7
 619 00f7 00000000 		.ascii	"\000\000\000\000\000\000\037\377\377\000\000\000\000"
 619      00001FFF 
 619      FF000000 
 619      00
 620 0104 00000700 		.ascii	"\000\000\007\000\000\000\000\000\000\037\377\377\000"
 620      00000000 
 620      001FFFFF 
 620      00
 621 0111 00000000 		.ascii	"\000\000\000\000\000\007\000\000\000\000x\000\037\377"
 621      00070000 
 621      00007800 
 621      1FFF
 622 011f FF000000 		.ascii	"\377\000\000\000\000\000\000\007\000\000\000\000\370"
 622      00000007 
 622      00000000 
 622      F8
ARM GAS  C:\Users\3kb\AppData\Local\Temp\ccoOmmoe.s 			page 43


 623 012c 401FFFFF 		.ascii	"@\037\377\377\000\000\000\000\000\000\007\000\000\000"
 623      00000000 
 623      00000700 
 623      0000
 624 013a 00F8001F 		.ascii	"\000\370\000\037\377\377\000\000\000\000\000\000\007"
 624      FFFF0000 
 624      00000000 
 624      07
 625 0147 00000002 		.ascii	"\000\000\000\002\002\000\037\340\377\000\000\000\000"
 625      02001FE0 
 625      FF000000 
 625      00
 626 0154 00000700 		.ascii	"\000\000\007\000\000\000\007\007\000\037\340\377\000"
 626      00000707 
 626      001FE0FF 
 626      00
 627 0161 00000000 		.ascii	"\000\000\000\000\000\007\000\000\000\007\007\000\037"
 627      00070000 
 627      00070700 
 627      1F
 628 016e C0FF0000 		.ascii	"\300\377\000\000\000\000\000\000\007\000\000\000\007"
 628      00000000 
 628      07000000 
 628      07
 629 017b 00C01F00 		.ascii	"\000\300\037\000\377\000\000\000\000\000\000\007\000"
 629      FF000000 
 629      00000007 
 629      00
 630 0188 00000700 		.ascii	"\000\000\007\000\300\037\000\377\000\000\000\000\000"
 630      C01F00FF 
 630      00000000 
 630      00
 631 0195 F0030000 		.ascii	"\360\003\000\000\000\007\000\000<\000\377\000\000\000"
 631      00070000 
 631      3C00FF00 
 631      0000
 632 01a3 0000F803 		.ascii	"\000\000\370\003\000\000\000\007\000\037\370\000\377"
 632      00000007 
 632      001FF800 
 632      FF
 633 01b0 00000000 		.ascii	"\000\000\000\000\000\370\003\000\000\000\007\000\037"
 633      00F80300 
 633      00000700 
 633      1F
 634 01bd F800FF00 		.ascii	"\370\000\377\000\000\000\000\003\006\003\000\000\000"
 634      00000003 
 634      06030000 
 634      00
 635 01ca 07000000 		.ascii	"\007\000\000\000\000\377\000\000\000\000\007\007\003"
 635      00FF0000 
 635      00000707 
 635      03
 636 01d7 00000007 		.ascii	"\000\000\000\007\000\000\000\000\377\000\000\000\000"
 636      00000000 
 636      FF000000 
 636      00
 637 01e4 07070700 		.ascii	"\007\007\007\000\000\000\003\000\000\000\000\377\000"
ARM GAS  C:\Users\3kb\AppData\Local\Temp\ccoOmmoe.s 			page 44


 637      00000300 
 637      000000FF 
 637      00
 638 01f1 00000007 		.ascii	"\000\000\000\007\007\377\000\000\000\030\000\000\000"
 638      07FF0000 
 638      00180000 
 638      00
 639 01fe 001F0000 		.ascii	"\000\037\000\000\000\000\007\007\377\000\000\000\030"
 639      00000707 
 639      FF000000 
 639      18
 640 020b 00000000 		.ascii	"\000\000\000\000\037\000\000\000\000\000\300\007\000"
 640      1F000000 
 640      0000C007 
 640      00
 641 0218 00001800 		.ascii	"\000\000\030\000\300\000\030\037\000\000\000\000\000"
 641      C000181F 
 641      00000000 
 641      00
 642 0225 E0070200 		.ascii	"\340\007\002\000\000\030\000\340\000\030\037\000\000"
 642      001800E0 
 642      00181F00 
 642      00
 643 0232 000000E0 		.ascii	"\000\000\000\340\007\000\000\000\030\000\340\000\030"
 643      07000000 
 643      1800E000 
 643      18
 644 023f 1F000000 		.ascii	"\037\000\000\000\000\000\037\007\000\000\000\030\003"
 644      00001F07 
 644      00000018 
 644      03
 645 024c E018F81F 		.ascii	"\340\030\370\037\000\000\000\000\000\037\007\000\000"
 645      00000000 
 645      001F0700 
 645      00
 646 0259 001807E0 		.ascii	"\000\030\007\3408\370\037\000\000\000\000\000\037\007"
 646      38F81F00 
 646      00000000 
 646      1F07
 647 0267 00000018 		.ascii	"\000\000\000\030\007\340\030\370\037\000\000\000\000"
 647      07E018F8 
 647      1F000000 
 647      00
 648 0274 0000FF00 		.ascii	"\000\000\377\000\000\000\030\000\000\000\000\037\000"
 648      00001800 
 648      0000001F 
 648      00
 649 0281 00000000 		.ascii	"\000\000\000\000\000\377\000\000@\030\000\000\000\000"
 649      00FF0000 
 649      40180000 
 649      0000
 650 028f 1F000000 		.ascii	"\037\000\000\000\000\000\000\377\000\000\000\030\000"
 650      000000FF 
 650      00000018 
 650      00
 651 029c 4040C01F 		.ascii	"@@\300\037\000\000\000\000\000\000\007\000\000\000\030"
 651      00000000 
ARM GAS  C:\Users\3kb\AppData\Local\Temp\ccoOmmoe.s 			page 45


 651      00000700 
 651      000018
 652 02ab 00E0C0E0 		.ascii	"\000\340\300\340\037\000\000\000\000\000\000\007\000"
 652      1F000000 
 652      00000007 
 652      00
 653 02b8 00001800 		.ascii	"\000\000\030\000\340\340\340\037\000\000\000\000\000"
 653      E0E0E01F 
 653      00000000 
 653      00
 654 02c5 00070000 		.ascii	"\000\007\000\000\000\007\000\377\377\340\377\000\000"
 654      000700FF 
 654      FFE0FF00 
 654      00
 655 02d2 00000000 		.ascii	"\000\000\000\000\007\000\000\000\007\000\377\377\340"
 655      07000000 
 655      0700FFFF 
 655      E0
 656 02df FF000000 		.ascii	"\377\000\000\000\000\000\000\007\000\000\000\002\000"
 656      00000007 
 656      00000002 
 656      00
 657 02ec FFFFC0FF 		.ascii	"\377\377\300\377\000\000\000\000\000\000\007\300\000"
 657      00000000 
 657      000007C0 
 657      00
 658 02f9 0000E000 		.ascii	"\000\000\340\000\000\007\377\000\000\000\000\000\000"
 658      0007FF00 
 658      00000000 
 658      00
 659 0306 07C00000 		.ascii	"\007\300\000\000\000\340\000\000\007\377\000\000\000"
 659      00E00000 
 659      07FF0000 
 659      00
 660 0313 00000017 		.ascii	"\000\000\000\027\300\000\000\000\353\306i\307\377\000"
 660      C0000000 
 660      EBC669C7 
 660      FF00
 661 0321 00000000 		.ascii	"\000\000\000\000\0008\037\377\377\377\377\377\377\377"
 661      00381FFF 
 661      FFFFFFFF 
 661      FFFF
 662 032f FF000000 		.ascii	"\377\000\000\000\000\000\0008\037\377\377\377\377\377"
 662      00000038 
 662      1FFFFFFF 
 662      FFFF
 663 033d FFFFFF00 		.ascii	"\377\377\377\000\000\000\000\000\0008?\340\377\377\370"
 663      00000000 
 663      00383FE0 
 663      FFFFF8
 664 034c 1FE0FFFF 		.ascii	"\037\340\377\377\000\000\000\000\000\0008\037\340\377"
 664      00000000 
 664      0000381F 
 664      E0FF
 665 035a FFF81FC0 		.ascii	"\377\370\037\300\377\377\000\007\377\377\340\000<?\340"
 665      FFFF0007 
 665      FFFFE000 
ARM GAS  C:\Users\3kb\AppData\Local\Temp\ccoOmmoe.s 			page 46


 665      3C3FE0
 666 0369 FFFFF81F 		.ascii	"\377\377\370\037\340\377?\000\007\377\377\340\000?\377"
 666      E0FF3F00 
 666      07FFFFE0 
 666      003FFF
 667 0378 FFFFFFFF 		.ascii	"\377\377\377\377\377\377\377\037\000\007\377\377\340"
 667      FFFFFF1F 
 667      0007FFFF 
 667      E0
 668 0385 003FFFFF 		.ascii	"\000?\377\377\377\377\377\377\377\377\037\377\377\377"
 668      FFFFFFFF 
 668      FFFF1FFF 
 668      FFFF
 669 0393 FFFFFFFF 		.ascii	"\377\377\377\377\377\377\377\377\377\377\377\377\037"
 669      FFFFFFFF 
 669      FFFFFFFF 
 669      1F
 670 03a0 FFFFFFFF 		.ascii	"\377\377\377\377\377\377\377\377\377\377\377\377\377"
 670      FFFFFFFF 
 670      FFFFFFFF 
 670      FF
 671 03ad FFFFFFFF 		.ascii	"\377\377\377\377\377\377\377\377\377\377\377\377\377"
 671      FFFFFFFF 
 671      FFFFFFFF 
 671      FF
 672 03ba FFFFFFFF 		.ascii	"\377\377\377\377\377\377\377\377\377\377\377\377\377"
 672      FFFFFFFF 
 672      FFFFFFFF 
 672      FF
 673 03c7 FFFFFFFF 		.ascii	"\377\377\377\377\377\377\377\377\377\377\377\377\377"
 673      FFFFFFFF 
 673      FFFFFFFF 
 673      FF
 674 03d4 FFFFFFFF 		.ascii	"\377\377\377\377\377\377\377\377\377\377\377\377\377"
 674      FFFFFFFF 
 674      FFFFFFFF 
 674      FF
 675 03e1 FFFFFFFF 		.ascii	"\377\377\377\377\377\377\377\377\377\377\377\377\377"
 675      FFFFFFFF 
 675      FFFFFFFF 
 675      FF
 676 03ee FFFFFFFF 		.ascii	"\377\377\377\377\377\377\377\377\377\377\377\377\377"
 676      FFFFFFFF 
 676      FFFFFFFF 
 676      FF
 677 03fb FFFFFFFF 		.ascii	"\377\377\377\377\377"
 677      FF
 678              		.global	nyan_cat_11
 679              		.section	.rodata.nyan_cat_11,"a"
 680              		.align	2
 683              	nyan_cat_11:
 684 0000 FFFFFFFF 		.ascii	"\377\377\377\377\377\377\377\377\377\377\377\377\370"
 684      FFFFFFFF 
 684      FFFFFFFF 
 684      F8
 685 000d FFFFFFFF 		.ascii	"\377\377\377\377\377\377\377\377\377\377\377\377\377"
 685      FFFFFFFF 
ARM GAS  C:\Users\3kb\AppData\Local\Temp\ccoOmmoe.s 			page 47


 685      FFFFFFFF 
 685      FF
 686 001a FFFFF8FF 		.ascii	"\377\377\370\377\377\377\377\377\377\377\377\377\377"
 686      FFFFFFFF 
 686      FFFFFFFF 
 686      FF
 687 0027 FFFFFFFF 		.ascii	"\377\377\377\377\377\377\377\377\377\377\377\377\377"
 687      FFFFFFFF 
 687      FFFFFFFF 
 687      FF
 688 0034 FFFFFFFF 		.ascii	"\377\377\377\377\377\377\377\377\377\377\377\377\377"
 688      FFFFFFFF 
 688      FFFFFFFF 
 688      FF
 689 0041 FFFFFFFF 		.ascii	"\377\377\377\377\377\377\377\377\377\377\377\377\377"
 689      FFFFFFFF 
 689      FFFFFFFF 
 689      FF
 690 004e FFFFFFFF 		.ascii	"\377\377\377\377\377\377\377\377\377\377\377\377\377"
 690      FFFFFFFF 
 690      FFFFFFFF 
 690      FF
 691 005b FFFFFFFF 		.ascii	"\377\377\377\377\377\377\377\377\377\377\377\377\340"
 691      FFFFFFFF 
 691      FFFFFFFF 
 691      E0
 692 0068 00000000 		.ascii	"\000\000\000\000\000\377\377\377\377\370\000\000\037"
 692      00FFFFFF 
 692      FFF80000 
 692      1F
 693 0075 FFFFC000 		.ascii	"\377\377\300\000\000\000\000\000\377\377\377\377\377"
 693      00000000 
 693      FFFFFFFF 
 693      FF
 694 0082 AFB79FFF 		.ascii	"\257\267\237\377\377\300\000\000\000\000\000\377\377"
 694      FFC00000 
 694      000000FF 
 694      FF
 695 008f FF0003FF 		.ascii	"\377\000\003\377\377\300\000\007\000\000\000\000\000"
 695      FFC00007 
 695      00000000 
 695      00
 696 009c 001FFFFF 		.ascii	"\000\037\377\377\000\007\377\377\300\000\007\000\000"
 696      0007FFFF 
 696      C0000700 
 696      00
 697 00a9 00000000 		.ascii	"\000\000\000\000\037\377\377\177\377\377\377\377\377"
 697      1FFFFF7F 
 697      FFFFFFFF 
 697      FF
 698 00b6 F7000000 		.ascii	"\367\000\000\000\000\000\000\037\377\377\177\377\377"
 698      0000001F 
 698      FFFF7FFF 
 698      FF
 699 00c3 FFFFFFF7 		.ascii	"\377\377\377\367\000\000\000\000\000\000\037\377\377"
 699      00000000 
 699      00001FFF 
ARM GAS  C:\Users\3kb\AppData\Local\Temp\ccoOmmoe.s 			page 48


 699      FF
 700 00d0 7FFFFFFF 		.ascii	"\177\377\377\377\377\377\367\000\000\002\000\000\000"
 700      FFFFF700 
 700      00020000 
 700      00
 701 00dd 1FFFFF7F 		.ascii	"\037\377\377\177\370\000\000\037\377\367\000\000\000"
 701      F800001F 
 701      FFF70000 
 701      00
 702 00ea 0000001F 		.ascii	"\000\000\000\037\377\377\177\370\000\000\037\377\367"
 702      FFFF7FF8 
 702      00001FFF 
 702      F7
 703 00f7 00000000 		.ascii	"\000\000\000\000\000\000\037\377\377\022\300\000\000"
 703      00001FFF 
 703      FF12C000 
 703      00
 704 0104 04000700 		.ascii	"\004\000\007\000\000\000\000\000\000\037\377\377\000"
 704      00000000 
 704      001FFFFF 
 704      00
 705 0111 00000000 		.ascii	"\000\000\000\000\000\007\000\000\000\003\300\000\037"
 705      00070000 
 705      0003C000 
 705      1F
 706 011e FFFF0000 		.ascii	"\377\377\000\000\000\000\000\000\007\000\000\000\007"
 706      00000000 
 706      07000000 
 706      07
 707 012b E0401FFF 		.ascii	"\340@\037\377\377\000\000\000\000\000\000\007\000\000"
 707      FF000000 
 707      00000007 
 707      0000
 708 0139 0003C000 		.ascii	"\000\003\300\000\037\377\377\000\000\000\000\000\000"
 708      1FFFFF00 
 708      00000000 
 708      00
 709 0146 07000000 		.ascii	"\007\000\000\000\030\030\000\037\007\377\000\000\000"
 709      1818001F 
 709      07FF0000 
 709      00
 710 0153 00000007 		.ascii	"\000\000\000\007\000\000\000\030\030\000\037\007\377"
 710      00000018 
 710      18001F07 
 710      FF
 711 0160 00000000 		.ascii	"\000\000\000\000\000\000\007\000\000\000\030\030\000"
 711      00000700 
 711      00001818 
 711      00
 712 016d 1F07FF00 		.ascii	"\037\007\377\000\000\000\000\007\376\007\000\000\000"
 712      00000007 
 712      FE070000 
 712      00
 713 017a 18060018 		.ascii	"\030\006\000\030\007\377\000\000\000\000\007\377\007"
 713      07FF0000 
 713      000007FF 
 713      07
ARM GAS  C:\Users\3kb\AppData\Local\Temp\ccoOmmoe.s 			page 49


 714 0187 00000018 		.ascii	"\000\000\000\030\007\000\030\007\377\000\000\000\000"
 714      07001807 
 714      FF000000 
 714      00
 715 0194 0707C300 		.ascii	"\007\007\303\000\000\000\030\000\000\000\007\377\000"
 715      00001800 
 715      000007FF 
 715      00
 716 01a1 00000007 		.ascii	"\000\000\000\007\007\303\000\000\000\030\000\377\340"
 716      07C30000 
 716      001800FF 
 716      E0
 717 01ae 07FF0000 		.ascii	"\007\377\000\000\000\000\007\007\307\000\000\000\030"
 717      00000707 
 717      C7000000 
 717      18
 718 01bb 00FFC007 		.ascii	"\000\377\300\007\377\000\000\000\000\007\340\377\000"
 718      FF000000 
 718      0007E0FF 
 718      00
 719 01c8 00001800 		.ascii	"\000\000\030\000\000\000\007\377\000\000\000\000\007"
 719      000007FF 
 719      00000000 
 719      07
 720 01d5 E0FF0000 		.ascii	"\340\377\000\000\000\030\000\000\000\007\377\000\000"
 720      00180000 
 720      0007FF00 
 720      00
 721 01e2 000003E0 		.ascii	"\000\000\003\340\377\000\000\000\030\000\000\000\003"
 721      FF000000 
 721      18000000 
 721      03
 722 01ef FF000000 		.ascii	"\377\000\000\000\000\000\370?\000\000\000\340\000\000"
 722      0000F83F 
 722      000000E0 
 722      0000
 723 01fd 0000FF00 		.ascii	"\000\000\377\000\000\000\000\000\370?\000\000\000\340"
 723      00000000 
 723      F83F0000 
 723      00E0
 724 020b 00000000 		.ascii	"\000\000\000\000\377\000\000\000\000\000\036\007\000"
 724      FF000000 
 724      00001E07 
 724      00
 725 0218 0000E002 		.ascii	"\000\000\340\002\000\000@\377\000\000\000\000\000\037"
 725      000040FF 
 725      00000000 
 725      001F
 726 0226 07020000 		.ascii	"\007\002\000\000\340\003\000\000\340\377\000\000\000"
 726      E0030000 
 726      E0FF0000 
 726      00
 727 0233 00001F07 		.ascii	"\000\000\037\007\000\000\000\340\007\000\000\340\377"
 727      000000E0 
 727      070000E0 
 727      FF
 728 0240 00000000 		.ascii	"\000\000\000\000\000\007\377\000\000\000\340\037\000"
ARM GAS  C:\Users\3kb\AppData\Local\Temp\ccoOmmoe.s 			page 50


 728      0007FF00 
 728      0000E01F 
 728      00
 729 024d C3E0FF00 		.ascii	"\303\340\377\000\000\000\000\000\007\377\000\000\000"
 729      00000000 
 729      07FF0000 
 729      00
 730 025a E01F00E7 		.ascii	"\340\037\000\347\340\377\000\000\000\000\000\007\377"
 730      E0FF0000 
 730      00000007 
 730      FF
 731 0267 000000E0 		.ascii	"\000\000\000\340\037\000\307\300\377\000\000\000\000"
 731      1F00C7C0 
 731      FF000000 
 731      00
 732 0274 00003F00 		.ascii	"\000\000?\000\000\000\340\000\000\000\000\377\000\000"
 732      0000E000 
 732      000000FF 
 732      0000
 733 0282 00000000 		.ascii	"\000\000\000\000\037\000\000@\340\000\000\000\000\377"
 733      1F000040 
 733      E0000000 
 733      00FF
 734 0290 00000000 		.ascii	"\000\000\000\000\000\000\037\000\000\000\340\002\002"
 734      00001F00 
 734      0000E002 
 734      02
 735 029d 0200FF00 		.ascii	"\002\000\377\000\000\000\000\000\000\007\000\000\000"
 735      00000000 
 735      00070000 
 735      00
 736 02aa E0070707 		.ascii	"\340\007\007\007\000\377\000\000\000\000\000\000\007"
 736      00FF0000 
 736      00000000 
 736      07
 737 02b7 00000060 		.ascii	"\000\000\000`\007\007\007\000\377\000\000\000\000\000"
 737      07070700 
 737      FF000000 
 737      0000
 738 02c5 00070000 		.ascii	"\000\007\000\000\000\030\007\377\377\003\377\000\000"
 738      001807FF 
 738      FF03FF00 
 738      00
 739 02d2 00000000 		.ascii	"\000\000\000\000\007\000\000\000\030\007\377\377\007"
 739      07000000 
 739      1807FFFF 
 739      07
 740 02df FF000000 		.ascii	"\377\000\000\000\000\000\000\007\000\000\000\030\003"
 740      00000007 
 740      00000018 
 740      03
 741 02ec FFFF07FF 		.ascii	"\377\377\007\377\000\000\000\000\000\000?\300\000\000"
 741      00000000 
 741      00003FC0 
 741      0000
 742 02fa 07000000 		.ascii	"\007\000\000\000\037\377\000\000\000\000\000\000?\300"
 742      1FFF0000 
ARM GAS  C:\Users\3kb\AppData\Local\Temp\ccoOmmoe.s 			page 51


 742      00000000 
 742      3FC0
 743 0308 00000700 		.ascii	"\000\000\007\000\000\000\037\377\000\000\000\000\000"
 743      00001FFF 
 743      00000000 
 743      00
 744 0315 00FFC000 		.ascii	"\000\377\300\000\000\007\237z\005?\377\000\000\000\000"
 744      00079F7A 
 744      053FFF00 
 744      000000
 745 0324 0001C01F 		.ascii	"\000\001\300\037\377\377\377\377\377\377\377\377\000"
 745      FFFFFFFF 
 745      FFFFFFFF 
 745      00
 746 0331 00000000 		.ascii	"\000\000\000\000\001\300\037\377\377\377\377\377\377"
 746      01C01FFF 
 746      FFFFFFFF 
 746      FF
 747 033e FFFF0000 		.ascii	"\377\377\000\000\000\000\000\001\300\377\340\377\377"
 747      00000001 
 747      C0FFE0FF 
 747      FF
 748 034b E0FF07FF 		.ascii	"\340\377\007\377\377\000\000\000\000\000\001\300\377"
 748      FF000000 
 748      000001C0 
 748      FF
 749 0358 E0FFFFE0 		.ascii	"\340\377\377\340\377\007\377\377\000\007\377\377\340"
 749      FF07FFFF 
 749      0007FFFF 
 749      E0
 750 0365 01E0FFE0 		.ascii	"\001\340\377\340\377\377\341\377\007\377\377\000\007"
 750      FFFFE1FF 
 750      07FFFF00 
 750      07
 751 0372 FFFFE001 		.ascii	"\377\377\340\001\377\377\377\377\377\377\377\377\377"
 751      FFFFFFFF 
 751      FFFFFFFF 
 751      FF
 752 037f FF0007FF 		.ascii	"\377\000\007\377\377\340\001\377\377\377\377\377\377"
 752      FFE001FF 
 752      FFFFFFFF 
 752      FF
 753 038c FFFFFFFF 		.ascii	"\377\377\377\377\377\377\377\377\377\377\377\377\377"
 753      FFFFFFFF 
 753      FFFFFFFF 
 753      FF
 754 0399 FFFFFFFF 		.ascii	"\377\377\377\377\377\377\377\377\377\377\377\377\377"
 754      FFFFFFFF 
 754      FFFFFFFF 
 754      FF
 755 03a6 FFFFFFFF 		.ascii	"\377\377\377\377\377\377\377\377\377\377\377\377\377"
 755      FFFFFFFF 
 755      FFFFFFFF 
 755      FF
 756 03b3 FFFFFFFF 		.ascii	"\377\377\377\377\377\377\377\377\377\377\377\377\377"
 756      FFFFFFFF 
 756      FFFFFFFF 
ARM GAS  C:\Users\3kb\AppData\Local\Temp\ccoOmmoe.s 			page 52


 756      FF
 757 03c0 FFFFFFFF 		.ascii	"\377\377\377\377\377\377\377\377\377\377\377\377\377"
 757      FFFFFFFF 
 757      FFFFFFFF 
 757      FF
 758 03cd FFFFFFFF 		.ascii	"\377\377\377\377\377\377\377\377\377\377\377\377\377"
 758      FFFFFFFF 
 758      FFFFFFFF 
 758      FF
 759 03da FFFFFFFF 		.ascii	"\377\377\377\377\377\377\377\377\377\377\377\377\377"
 759      FFFFFFFF 
 759      FFFFFFFF 
 759      FF
 760 03e7 FFFFFFFF 		.ascii	"\377\377\377\377\377\377\377\377\377\377\377\377\377"
 760      FFFFFFFF 
 760      FFFFFFFF 
 760      FF
 761 03f4 FFFFFFFF 		.ascii	"\377\377\377\377\377\377\377\377\377\377\377\377"
 761      FFFFFFFF 
 761      FFFFFFFF 
 762              		.global	nyan_cat_10
 763              		.section	.rodata.nyan_cat_10,"a"
 764              		.align	2
 767              	nyan_cat_10:
 768 0000 FFFFFFFF 		.ascii	"\377\377\377\377\377\377\377\377\377\377\377\377\370"
 768      FFFFFFFF 
 768      FFFFFFFF 
 768      F8
 769 000d FFFFFFFF 		.ascii	"\377\377\377\377\377\377\377\377\377\377\377\377\377"
 769      FFFFFFFF 
 769      FFFFFFFF 
 769      FF
 770 001a FFFFF8FF 		.ascii	"\377\377\370\377\377\377\377\377\377\377\377\377\377"
 770      FFFFFFFF 
 770      FFFFFFFF 
 770      FF
 771 0027 FFFFFFFF 		.ascii	"\377\377\377\377\377\377\377\377\377\377\377\377\377"
 771      FFFFFFFF 
 771      FFFFFFFF 
 771      FF
 772 0034 FFFFFFFF 		.ascii	"\377\377\377\377\377\377\377\377\377\377\377\377\377"
 772      FFFFFFFF 
 772      FFFFFFFF 
 772      FF
 773 0041 FFFFFFFF 		.ascii	"\377\377\377\377\377\377\377\377\377\377\377\377\377"
 773      FFFFFFFF 
 773      FFFFFFFF 
 773      FF
 774 004e FFFFFFFF 		.ascii	"\377\377\377\377\377\377\377\377\377\377\377\377\377"
 774      FFFFFFFF 
 774      FFFFFFFF 
 774      FF
 775 005b FFFFFFFF 		.ascii	"\377\377\377\377\377\377\377\377\377\377\377\377\340"
 775      FFFFFFFF 
 775      FFFFFFFF 
 775      E0
 776 0068 00000000 		.ascii	"\000\000\000\000\000\377\377\377\377\370\000\000\037"
ARM GAS  C:\Users\3kb\AppData\Local\Temp\ccoOmmoe.s 			page 53


 776      00FFFFFF 
 776      FFF80000 
 776      1F
 777 0075 FFFFC000 		.ascii	"\377\377\300\000\000\000\000\000\377\377\377\377\377"
 777      00000000 
 777      FFFFFFFF 
 777      FF
 778 0082 DFFE9FFF 		.ascii	"\337\376\237\377\377\300\000\000\000\000\000\377\377"
 778      FFC00000 
 778      000000FF 
 778      FF
 779 008f FF0007FF 		.ascii	"\377\000\007\377\377\300\000\007\000\000\000\000\000"
 779      FFC00007 
 779      00000000 
 779      00
 780 009c 001FFFFF 		.ascii	"\000\037\377\377\000\007\377\377\300\000\007\000\000"
 780      0007FFFF 
 780      C0000700 
 780      00
 781 00a9 00000000 		.ascii	"\000\000\000\000\037\377\377\177\375\377\377\377\377"
 781      1FFFFF7F 
 781      FDFFFFFF 
 781      FF
 782 00b6 F7000000 		.ascii	"\367\000\000\000\000\000\000\037\377\377\177\377\377"
 782      0000001F 
 782      FFFF7FFF 
 782      FF
 783 00c3 FFFFFFF7 		.ascii	"\377\377\377\367\000\000\000\000\000\000\037\377\377"
 783      00000000 
 783      00001FFF 
 783      FF
 784 00d0 7FEFFFFF 		.ascii	"\177\357\377\377\377\377\367\000\000\002\002\000\000"
 784      FFFFF700 
 784      00020200 
 784      00
 785 00dd 1FFFFF7F 		.ascii	"\037\377\377\177\370\000\000\037\377\367\000\000\000"
 785      F800001F 
 785      FFF70000 
 785      00
 786 00ea 0000001F 		.ascii	"\000\000\000\037\377\377\177\370\000\000\037\377\367"
 786      FFFF7FF8 
 786      00001FFF 
 786      F7
 787 00f7 00000000 		.ascii	"\000\000\000\000\000\000\037\377\377\000\000\000\000"
 787      00001FFF 
 787      FF000000 
 787      00
 788 0104 00000700 		.ascii	"\000\000\007\000\000\000\000\000\000\037\377\377\000"
 788      00000000 
 788      001FFFFF 
 788      00
 789 0111 00000000 		.ascii	"\000\000\000\000\000\007\000\000\000\003\300\000\037"
 789      00070000 
 789      0003C000 
 789      1F
 790 011e FFFF0000 		.ascii	"\377\377\000\000\000\000\000\000\007\000\000\000\007"
 790      00000000 
ARM GAS  C:\Users\3kb\AppData\Local\Temp\ccoOmmoe.s 			page 54


 790      07000000 
 790      07
 791 012b E0401FFF 		.ascii	"\340@\037\377\377\000\000\000\000\000\000\007\000\000"
 791      FF000000 
 791      00000007 
 791      0000
 792 0139 0007C000 		.ascii	"\000\007\300\000\037\377\377\000\000\000\000\000\000"
 792      1FFFFF00 
 792      00000000 
 792      00
 793 0146 07000000 		.ascii	"\007\000\000\000\030\030\000\037\007\377\000\000\000"
 793      1818001F 
 793      07FF0000 
 793      00
 794 0153 00000007 		.ascii	"\000\000\000\007\000\000\000\030\030\000\037\007\377"
 794      00000018 
 794      18001F07 
 794      FF
 795 0160 00000000 		.ascii	"\000\000\000\000\000\000\007\000\000\000\030\030\000"
 795      00000700 
 795      00001818 
 795      00
 796 016d 1F07FF00 		.ascii	"\037\007\377\000\000\000\000\007\376\007\000\000\000"
 796      00000007 
 796      FE070000 
 796      00
 797 017a 18060018 		.ascii	"\030\006\000\030\007\377\000\000\000\000\007\377\007"
 797      07FF0000 
 797      000007FF 
 797      07
 798 0187 00000018 		.ascii	"\000\000\000\030\007\000\030\007\377\000\000\000\000"
 798      07001807 
 798      FF000000 
 798      00
 799 0194 0707C300 		.ascii	"\007\007\303\000\000\000\030\000\000\000\007\377\000"
 799      00001800 
 799      000007FF 
 799      00
 800 01a1 00000007 		.ascii	"\000\000\000\007\007\303\000\000\000\030\000\377\340"
 800      07C30000 
 800      001800FF 
 800      E0
 801 01ae 07FF0000 		.ascii	"\007\377\000\000\000\000\007\007\307\000\000\000\030"
 801      00000707 
 801      C7000000 
 801      18
 802 01bb 00FFC007 		.ascii	"\000\377\300\007\377\000\000\000\000\007\340\377\000"
 802      FF000000 
 802      0007E0FF 
 802      00
 803 01c8 00001800 		.ascii	"\000\000\030\000\000\000\007\377\000\000\000\000\007"
 803      000007FF 
 803      00000000 
 803      07
 804 01d5 E0FF0000 		.ascii	"\340\377\000\000\000\030\000\000\000\007\377\000\000"
 804      00180000 
 804      0007FF00 
ARM GAS  C:\Users\3kb\AppData\Local\Temp\ccoOmmoe.s 			page 55


 804      00
 805 01e2 000003E0 		.ascii	"\000\000\003\340\377\000\000\000\030\000\000\000\003"
 805      FF000000 
 805      18000000 
 805      03
 806 01ef FF000000 		.ascii	"\377\000\000\000\000\000\370?\000\000\000\340\000\000"
 806      0000F83F 
 806      000000E0 
 806      0000
 807 01fd 0000FF00 		.ascii	"\000\000\377\000\000\000\000\000\370?\000\000\000\340"
 807      00000000 
 807      F83F0000 
 807      00E0
 808 020b 00000000 		.ascii	"\000\000\000\000\377\000\000\000\000\000\036\007\000"
 808      FF000000 
 808      00001E07 
 808      00
 809 0218 0000E002 		.ascii	"\000\000\340\002\000\000@\377\000\000\000\000\000\037"
 809      000040FF 
 809      00000000 
 809      001F
 810 0226 07020000 		.ascii	"\007\002\000\000\340\003\000\000\340\377\000\000\000"
 810      E0030000 
 810      E0FF0000 
 810      00
 811 0233 00001F07 		.ascii	"\000\000\037\007\000\000\000\340\003\000\000\340\377"
 811      000000E0 
 811      030000E0 
 811      FF
 812 0240 00000000 		.ascii	"\000\000\000\000\000\007\377\000\000\000\340\037\000"
 812      0007FF00 
 812      0000E01F 
 812      00
 813 024d C3E0FF00 		.ascii	"\303\340\377\000\000\000\000\000\007\377\000\000\000"
 813      00000000 
 813      07FF0000 
 813      00
 814 025a E01F00E7 		.ascii	"\340\037\000\347\340\377\000\000\000\000\000\003\377"
 814      E0FF0000 
 814      00000003 
 814      FF
 815 0267 000000E0 		.ascii	"\000\000\000\340\037\000\303\300\377\000\000\000\000"
 815      1F00C3C0 
 815      FF000000 
 815      00
 816 0274 00003F00 		.ascii	"\000\000?\000\000\000\340\000\000\000\000\377\000\000"
 816      0000E000 
 816      000000FF 
 816      0000
 817 0282 00000000 		.ascii	"\000\000\000\000\037\000\000@\340\000\000\000\000\377"
 817      1F000040 
 817      E0000000 
 817      00FF
 818 0290 00000000 		.ascii	"\000\000\000\000\000\000\037\000\000\000\340\002\002"
 818      00001F00 
 818      0000E002 
 818      02
ARM GAS  C:\Users\3kb\AppData\Local\Temp\ccoOmmoe.s 			page 56


 819 029d 0200FF00 		.ascii	"\002\000\377\000\000\000\000\000\000\007\000\000\000"
 819      00000000 
 819      00070000 
 819      00
 820 02aa E0070707 		.ascii	"\340\007\007\007\000\377\000\000\000\000\000\000\007"
 820      00FF0000 
 820      00000000 
 820      07
 821 02b7 00000060 		.ascii	"\000\000\000`\007\007\007\000\377\000\000\000\000\000"
 821      07070700 
 821      FF000000 
 821      0000
 822 02c5 00070000 		.ascii	"\000\007\000\000\000\030\007\377\377\003\377\000\000"
 822      001807FF 
 822      FF03FF00 
 822      00
 823 02d2 00000000 		.ascii	"\000\000\000\000\007\000\000\000\030\007\377\377\007"
 823      07000000 
 823      1807FFFF 
 823      07
 824 02df FF000000 		.ascii	"\377\000\000\000\000\000\000\027\000\000\000\030\007"
 824      00000017 
 824      00000018 
 824      07
 825 02ec FFFF07FF 		.ascii	"\377\377\007\377\000\000\000\000\000\000?\300\000\000"
 825      00000000 
 825      00003FC0 
 825      0000
 826 02fa 07000000 		.ascii	"\007\000\000\000?\377\000\000\000\000\000\000?\300\000"
 826      3FFF0000 
 826      00000000 
 826      3FC000
 827 0309 00070000 		.ascii	"\000\007\000\000\000\037\377\000\000\000\000\000\000"
 827      001FFF00 
 827      00000000 
 827      00
 828 0316 FFC00000 		.ascii	"\377\300\000\000\007\254:I?\377\000\000\000\000\000"
 828      07AC3A49 
 828      3FFF0000 
 828      000000
 829 0325 01C01FFF 		.ascii	"\001\300\037\377\377\377\377\377\377\377\377\000\000"
 829      FFFFFFFF 
 829      FFFFFF00 
 829      00
 830 0332 00000001 		.ascii	"\000\000\000\001\300\037\377\377\377\377\377\377\377"
 830      C01FFFFF 
 830      FFFFFFFF 
 830      FF
 831 033f FF000000 		.ascii	"\377\000\000\000\000\000\001\300\377\340\377\377\340"
 831      000001C0 
 831      FFE0FFFF 
 831      E0
 832 034c FF07FFFF 		.ascii	"\377\007\377\377\000\000\000\000\000\001\300\377\340"
 832      00000000 
 832      0001C0FF 
 832      E0
 833 0359 FFFFE0FF 		.ascii	"\377\377\340\377\007\377\377\000\007\377\377\340\001"
ARM GAS  C:\Users\3kb\AppData\Local\Temp\ccoOmmoe.s 			page 57


 833      07FFFF00 
 833      07FFFFE0 
 833      01
 834 0366 E0FFE0FF 		.ascii	"\340\377\340\377\377\341\377\007\377\377\000\007\377"
 834      FFE1FF07 
 834      FFFF0007 
 834      FF
 835 0373 FFE001FF 		.ascii	"\377\340\001\377\377\377\377\377\377\377\377\377\377"
 835      FFFFFFFF 
 835      FFFFFFFF 
 835      FF
 836 0380 0007FFFF 		.ascii	"\000\007\377\377\340\001\377\377\377\377\377\377\377"
 836      E001FFFF 
 836      FFFFFFFF 
 836      FF
 837 038d FFFFFFFF 		.ascii	"\377\377\377\377\377\377\377\377\377\377\377\377\377"
 837      FFFFFFFF 
 837      FFFFFFFF 
 837      FF
 838 039a FFFFFFFF 		.ascii	"\377\377\377\377\377\377\377\377\377\377\377\377\377"
 838      FFFFFFFF 
 838      FFFFFFFF 
 838      FF
 839 03a7 FFFFFFFF 		.ascii	"\377\377\377\377\377\377\377\377\377\377\377\377\377"
 839      FFFFFFFF 
 839      FFFFFFFF 
 839      FF
 840 03b4 FFFFFFFF 		.ascii	"\377\377\377\377\377\377\377\377\377\377\377\377\377"
 840      FFFFFFFF 
 840      FFFFFFFF 
 840      FF
 841 03c1 FFFFFFFF 		.ascii	"\377\377\377\377\377\377\377\377\377\377\377\377\377"
 841      FFFFFFFF 
 841      FFFFFFFF 
 841      FF
 842 03ce FFFFFFFF 		.ascii	"\377\377\377\377\377\377\377\377\377\377\377\377\377"
 842      FFFFFFFF 
 842      FFFFFFFF 
 842      FF
 843 03db FFFFFFFF 		.ascii	"\377\377\377\377\377\377\377\377\377\377\377\377\377"
 843      FFFFFFFF 
 843      FFFFFFFF 
 843      FF
 844 03e8 FFFFFFFF 		.ascii	"\377\377\377\377\377\377\377\377\377\377\377\377\377"
 844      FFFFFFFF 
 844      FFFFFFFF 
 844      FF
 845 03f5 FFFFFFFF 		.ascii	"\377\377\377\377\377\377\377\377\377\377\377"
 845      FFFFFFFF 
 845      FFFFFF
 846              		.global	nyan_cat_09
 847              		.section	.rodata.nyan_cat_09,"a"
 848              		.align	2
 851              	nyan_cat_09:
 852 0000 FFFFFFFF 		.ascii	"\377\377\377\377\377\377\377\377\377\377\377\377\377"
 852      FFFFFFFF 
 852      FFFFFFFF 
ARM GAS  C:\Users\3kb\AppData\Local\Temp\ccoOmmoe.s 			page 58


 852      FF
 853 000d FFFFFFFF 		.ascii	"\377\377\377\377\377\377\377\377\377\377\377\377\377"
 853      FFFFFFFF 
 853      FFFFFFFF 
 853      FF
 854 001a FFFFFFFF 		.ascii	"\377\377\377\377\377\377\377\377\377\377\377\377\377"
 854      FFFFFFFF 
 854      FFFFFFFF 
 854      FF
 855 0027 FFFFFFFF 		.ascii	"\377\377\377\377\377\377\377\377\377\377\377\377\377"
 855      FFFFFFFF 
 855      FFFFFFFF 
 855      FF
 856 0034 FFFFFFFF 		.ascii	"\377\377\377\377\377\377\377\377\377\377\377\377\377"
 856      FFFFFFFF 
 856      FFFFFFFF 
 856      FF
 857 0041 FFFFFFFF 		.ascii	"\377\377\377\377\377\377\377\377\377\377\377\377\377"
 857      FFFFFFFF 
 857      FFFFFFFF 
 857      FF
 858 004e FFFFFFFF 		.ascii	"\377\377\377\377\377\377\377\377\377\377\377\377\377"
 858      FFFFFFFF 
 858      FFFFFFFF 
 858      FF
 859 005b FFFFFFFF 		.ascii	"\377\377\377\377\377\177\377\377\377\377\377\377\377"
 859      FF7FFFFF 
 859      FFFFFFFF 
 859      FF
 860 0068 FFFFFFFF 		.ascii	"\377\377\377\377\377\377\377\377\000\000\377\377\370"
 860      FFFFFFFF 
 860      0000FFFF 
 860      F8
 861 0075 00003FFF 		.ascii	"\000\000?\377\377\377\377\377\377\377\377\177\374\177"
 861      FFFFFFFF 
 861      FFFFFF7F 
 861      FC7F
 862 0083 FFFBFFFE 		.ascii	"\377\373\377\376?\377\377\377\377\377\377\377\377\177"
 862      3FFFFFFF 
 862      FFFFFFFF 
 862      FF7F
 863 0091 FE000003 		.ascii	"\376\000\000\003\377\377\300\000\000\000\000\000\377"
 863      FFFFC000 
 863      00000000 
 863      FF
 864 009e FFFF7FFE 		.ascii	"\377\377\177\376\000\000\003\377\375\300\000\000\000"
 864      000003FF 
 864      FDC00000 
 864      00
 865 00ab 0000FFFF 		.ascii	"\000\000\377\377\377\177\377\377\377\377\377\367\300"
 865      FF7FFFFF 
 865      FFFFFFF7 
 865      C0
 866 00b8 00000000 		.ascii	"\000\000\000\000\000\377\377\377\177\377\377\377\377"
 866      00FFFFFF 
 866      7FFFFFFF 
 866      FF
ARM GAS  C:\Users\3kb\AppData\Local\Temp\ccoOmmoe.s 			page 59


 867 00c5 FFF70000 		.ascii	"\377\367\000\000\000\000\000\000\037\377\377\177\377"
 867      00000000 
 867      1FFFFF7F 
 867      FF
 868 00d2 FFFFFFFF 		.ascii	"\377\377\377\377\367\000\000\000\000\000\000\037\377"
 868      F7000000 
 868      0000001F 
 868      FF
 869 00df FF0000FF 		.ascii	"\377\000\000\377\377\370\000\007\000\000\000\000\000"
 869      FFF80007 
 869      00000000 
 869      00
 870 00ec 001FFFFF 		.ascii	"\000\037\377\377\000\000\177\377\370\000\007\000\000"
 870      00007FFF 
 870      F8000700 
 870      00
 871 00f9 00000000 		.ascii	"\000\000\000\000\037\377\377\000\000\000\000\000\000"
 871      1FFFFF00 
 871      00000000 
 871      00
 872 0106 07000000 		.ascii	"\007\000\000\000\002\000\000\037\377\377\000\000\000"
 872      0200001F 
 872      FFFF0000 
 872      00
 873 0113 00000007 		.ascii	"\000\000\000\007\000\000\000\000\000\000\037\377\377"
 873      00000000 
 873      00001FFF 
 873      FF
 874 0120 00000000 		.ascii	"\000\000\000\000\000\000\007\000\000\000\000\000\000"
 874      00000700 
 874      00000000 
 874      00
 875 012d 1FFFFF00 		.ascii	"\037\377\377\000\000\000\000\000\000\007\000\000\000"
 875      00000000 
 875      00070000 
 875      00
 876 013a 0000001F 		.ascii	"\000\000\000\037\377\377\000\000\000\000\000\000\007"
 876      FFFF0000 
 876      00000000 
 876      07
 877 0147 00000003 		.ascii	"\000\000\000\003\300\000\037\377\377\000\000\000\000"
 877      C0001FFF 
 877      FF000000 
 877      00
 878 0154 00000700 		.ascii	"\000\000\007\000\000\000\007\300@\037\377\377\000\000"
 878      000007C0 
 878      401FFFFF 
 878      0000
 879 0162 00000000 		.ascii	"\000\000\000\000\007\000\000\000\003\300\000\037\377"
 879      07000000 
 879      03C0001F 
 879      FF
 880 016f FF000000 		.ascii	"\377\000\000\000\000\000\000\003\000\000\000\030\030"
 880      00000003 
 880      00000018 
 880      18
 881 017c 001F07FF 		.ascii	"\000\037\007\377\000\000\000\000\000\000\003\000\000"
ARM GAS  C:\Users\3kb\AppData\Local\Temp\ccoOmmoe.s 			page 60


 881      00000000 
 881      00000300 
 881      00
 882 0189 00181800 		.ascii	"\000\030\030\000\037\007\377\000\000\000\000\000\000"
 882      1F07FF00 
 882      00000000 
 882      00
 883 0196 03000000 		.ascii	"\003\000\000\000\030\000\000\034\007\377\000\000\000"
 883      1800001C 
 883      07FF0000 
 883      00
 884 01a3 00000003 		.ascii	"\000\000\000\003\000\000\000\030\007\000\030\007\377"
 884      00000018 
 884      07001807 
 884      FF
 885 01b0 00000000 		.ascii	"\000\000\000\000\000\000\003\000\000\000\030\006\000"
 885      00000300 
 885      00001806 
 885      00
 886 01bd 1807FF00 		.ascii	"\030\007\377\000\000\000\000\003\376\003\000\000\000"
 886      00000003 
 886      FE030000 
 886      00
 887 01ca 1800FFE0 		.ascii	"\030\000\377\340\007\377\000\000\000\000\007\377\003"
 887      07FF0000 
 887      000007FF 
 887      03
 888 01d7 00000018 		.ascii	"\000\000\000\030\000\377\340\007\377\000\000\000\000"
 888      00FFE007 
 888      FF000000 
 888      00
 889 01e4 07FF0700 		.ascii	"\007\377\007\000\000\000\030\000\377\300\007\377\000"
 889      00001800 
 889      FFC007FF 
 889      00
 890 01f1 00000018 		.ascii	"\000\000\000\030\007\377\000\000\000\030\000\000\000"
 890      07FF0000 
 890      00180000 
 890      00
 891 01fe 07FF0000 		.ascii	"\007\377\000\000\000\000\030\007\377\000\000\000\030"
 891      00001807 
 891      FF000000 
 891      18
 892 020b 00000007 		.ascii	"\000\000\000\007\377\000\000\000\000\037\000?\000\000"
 892      FF000000 
 892      001F003F 
 892      0000
 893 0219 00000000 		.ascii	"\000\000\000\000\000\001\377\000\000\000\000\037\000"
 893      0001FF00 
 893      0000001F 
 893      00
 894 0226 3F000000 		.ascii	"?\000\000\000\340\000\000\000\000\377\000\000\000\000"
 894      E0000000 
 894      00FF0000 
 894      0000
 895 0234 1F001F00 		.ascii	"\037\000\037\000\000\000\340\000\000\000\000\377\000"
 895      0000E000 
ARM GAS  C:\Users\3kb\AppData\Local\Temp\ccoOmmoe.s 			page 61


 895      000000FF 
 895      00
 896 0241 00000000 		.ascii	"\000\000\000\000\377\307\000\000\000\340\003\000\000"
 896      FFC70000 
 896      00E00300 
 896      00
 897 024e C0FF0000 		.ascii	"\300\377\000\000\000\000\000\377\307\000\000\000\340"
 897      000000FF 
 897      C7000000 
 897      E0
 898 025b 030000E0 		.ascii	"\003\000\000\340\377\000\000\000\000\000\377\347\000"
 898      FF000000 
 898      0000FFE7 
 898      00
 899 0268 0000E007 		.ascii	"\000\000\340\007\000\000\340\377\000\000\000\000\000"
 899      0000E0FF 
 899      00000000 
 899      00
 900 0275 01FF0000 		.ascii	"\001\377\000\000\000\340\037\000\307\340\377\000\000"
 900      00E01F00 
 900      C7E0FF00 
 900      00
 901 0282 00000000 		.ascii	"\000\000\000\000\377\000\000\000\340\037\000\347\340"
 901      FF000000 
 901      E01F00E7 
 901      E0
 902 028f FF000000 		.ascii	"\377\000\000\000\000\000\000\377\000\000\000\340\032"
 902      000000FF 
 902      000000E0 
 902      1A
 903 029c 004240FF 		.ascii	"\000B@\377\000\000\000\000\000\000\007\000\000@\340"
 903      00000000 
 903      00000700 
 903      0040E0
 904 02ab 00000000 		.ascii	"\000\000\000\000\377\000\000\000\000\000\000\007\000"
 904      FF000000 
 904      00000007 
 904      00
 905 02b8 0000E000 		.ascii	"\000\000\340\000\000\000\000\377\000\000\000\000\000"
 905      000000FF 
 905      00000000 
 905      00
 906 02c5 00070000 		.ascii	"\000\007\000\000\000\340\007\007\007\000\377\000\000"
 906      00E00707 
 906      0700FF00 
 906      00
 907 02d2 00000000 		.ascii	"\000\000\000\000\007\000@\000\340\007\007\007\000\377"
 907      07004000 
 907      E0070707 
 907      00FF
 908 02e0 00000000 		.ascii	"\000\000\000\000\000\000\007\000\000\000@\007\007\007"
 908      00000700 
 908      00004007 
 908      0707
 909 02ee 00FF0008 		.ascii	"\000\377\000\010\000\000\000\000?\000\000\000\030\007"
 909      00000000 
 909      3F000000 
ARM GAS  C:\Users\3kb\AppData\Local\Temp\ccoOmmoe.s 			page 62


 909      1807
 910 02fc FFFF07FF 		.ascii	"\377\377\007\377\000\000\000\000\000\000?\000\000\000"
 910      00000000 
 910      00003F00 
 910      0000
 911 030a 1807FFFF 		.ascii	"\030\007\377\377\007\377\000\000\000\000\000\000\377"
 911      07FF0000 
 911      00000000 
 911      FF
 912 0317 00000002 		.ascii	"\000\000\000\002\003\377\376\027\377\000\000\000\000"
 912      03FFFE17 
 912      FF000000 
 912      00
 913 0324 0001FFC0 		.ascii	"\000\001\377\300\000\000\007\000\000\000?\377\000\000"
 913      00000700 
 913      00003FFF 
 913      0000
 914 0332 00000001 		.ascii	"\000\000\000\001\377\300\000\000\007\000\000\000\037"
 914      FFC00000 
 914      07000000 
 914      1F
 915 033f FF000000 		.ascii	"\377\000\000\000\000\000\007\000\377\377\377\377\377"
 915      00000700 
 915      FFFFFFFF 
 915      FF
 916 034c FFFFFFFF 		.ascii	"\377\377\377\377\000\000\000\000\000\007\000\377\377"
 916      00000000 
 916      000700FF 
 916      FF
 917 0359 FFFFFFFF 		.ascii	"\377\377\377\377\377\377\377\177\377\000\000\007\377"
 917      FFFFFF7F 
 917      FF000007 
 917      FF
 918 0366 00FFFFFF 		.ascii	"\000\377\377\377\377\377\377\377\377\377\377\377\000"
 918      FFFFFFFF 
 918      FFFFFFFF 
 918      00
 919 0373 0007FF07 		.ascii	"\000\007\377\007\370\037\377\377\007\370\037\377\377"
 919      F81FFFFF 
 919      07F81FFF 
 919      FF
 920 0380 FFFF0000 		.ascii	"\377\377\000\000\007\377\007\370\037\377\377\007\370"
 920      07FF07F8 
 920      1FFFFF07 
 920      F8
 921 038d 1FFFFFFF 		.ascii	"\037\377\377\377\377\377\377\377\377\007\374?\377\377"
 921      FFFFFFFF 
 921      FF07FC3F 
 921      FFFF
 922 039b 07FC3FFF 		.ascii	"\007\374?\377\377\377\377\377\377\377\377\377\377\377"
 922      FFFFFFFF 
 922      FFFFFFFF 
 922      FFFF
 923 03a9 FFFFFFFF 		.ascii	"\377\377\377\377\377\377\377\377\377\377\377\377\377"
 923      FFFFFFFF 
 923      FFFFFFFF 
 923      FF
ARM GAS  C:\Users\3kb\AppData\Local\Temp\ccoOmmoe.s 			page 63


 924 03b6 FFFFFFFF 		.ascii	"\377\377\377\377\377\377\377\377\377\377\377\377\377"
 924      FFFFFFFF 
 924      FFFFFFFF 
 924      FF
 925 03c3 FFFFFFFF 		.ascii	"\377\377\377\377\377\377\377\377\377\377\377\377\377"
 925      FFFFFFFF 
 925      FFFFFFFF 
 925      FF
 926 03d0 FFFFFFFF 		.ascii	"\377\377\377\377\377\377\377\377\377\377\377\377\377"
 926      FFFFFFFF 
 926      FFFFFFFF 
 926      FF
 927 03dd FFFFFFFF 		.ascii	"\377\377\377\377\377\377\377\377\377\377\377\377\377"
 927      FFFFFFFF 
 927      FFFFFFFF 
 927      FF
 928 03ea FFFFFFFF 		.ascii	"\377\377\377\377\377\377\377\377\377\377\377\377\377"
 928      FFFFFFFF 
 928      FFFFFFFF 
 928      FF
 929 03f7 FFFFFFFF 		.ascii	"\377\377\377\377\377\377\377\377\377"
 929      FFFFFFFF 
 929      FF
 930              		.global	nyan_cat_08
 931              		.section	.rodata.nyan_cat_08,"a"
 932              		.align	2
 935              	nyan_cat_08:
 936 0000 FFFFFFFF 		.ascii	"\377\377\377\377\377\377\377\377\377\377\377\377\377"
 936      FFFFFFFF 
 936      FFFFFFFF 
 936      FF
 937 000d FFFFFFFF 		.ascii	"\377\377\377\377\377\377\377\377\377\377\377\377\377"
 937      FFFFFFFF 
 937      FFFFFFFF 
 937      FF
 938 001a FFFFFFFF 		.ascii	"\377\377\377\377\377\377\377\377\377\377\377\377\377"
 938      FFFFFFFF 
 938      FFFFFFFF 
 938      FF
 939 0027 FFFFFFFF 		.ascii	"\377\377\377\377\377\377\377\377\377\377\377\377\377"
 939      FFFFFFFF 
 939      FFFFFFFF 
 939      FF
 940 0034 FFFFFFFF 		.ascii	"\377\377\377\377\377\377\377\377\377\377\377\377\377"
 940      FFFFFFFF 
 940      FFFFFFFF 
 940      FF
 941 0041 FFFFFFFF 		.ascii	"\377\377\377\377\377\377\377\377\377\377\377\377\377"
 941      FFFFFFFF 
 941      FFFFFFFF 
 941      FF
 942 004e FFFFFFFF 		.ascii	"\377\377\377\377\377\377\377\377\377\377\377\377\377"
 942      FFFFFFFF 
 942      FFFFFFFF 
 942      FF
 943 005b FFFFFFFF 		.ascii	"\377\377\377\377\377\177\377\377\377\375\377\377\277"
 943      FF7FFFFF 
ARM GAS  C:\Users\3kb\AppData\Local\Temp\ccoOmmoe.s 			page 64


 943      FFFDFFFF 
 943      BF
 944 0068 FFFFFFFF 		.ascii	"\377\377\377\377\377\377\377\377\000\000\377\377\370"
 944      FFFFFFFF 
 944      0000FFFF 
 944      F8
 945 0075 00003FFF 		.ascii	"\000\000?\377\377\377\377\377\377\377\377\177\374\377"
 945      FFFFFFFF 
 945      FFFFFF7F 
 945      FCFF
 946 0083 FFFBFFEE 		.ascii	"\377\373\377\356?\377\377\377\377\377\377\377\377\177"
 946      3FFFFFFF 
 946      FFFFFFFF 
 946      FF7F
 947 0091 FE000003 		.ascii	"\376\000\000\003\377\377\300\000\000\000\000\000\377"
 947      FFFFC000 
 947      00000000 
 947      FF
 948 009e FFFF7FFE 		.ascii	"\377\377\177\376\000\000\003\377\377\300\000\000\000"
 948      000003FF 
 948      FFC00000 
 948      00
 949 00ab 0000FFFF 		.ascii	"\000\000\377\377\377\177\377\377\377\377\377\367\300"
 949      FF7FFFFF 
 949      FFFFFFF7 
 949      C0
 950 00b8 00000000 		.ascii	"\000\000\000\000\000\377\377\377\177\377\377\377\377"
 950      00FFFFFF 
 950      7FFFFFFF 
 950      FF
 951 00c5 FFF70000 		.ascii	"\377\367\000\000\000\000\000\000\037\377\377\177\377"
 951      00000000 
 951      1FFFFF7F 
 951      FF
 952 00d2 FFFFFFFF 		.ascii	"\377\377\377\377\367\000\000\000\000\000\000\037\377"
 952      F7000000 
 952      0000001F 
 952      FF
 953 00df FF0000FF 		.ascii	"\377\000\000\377\377\370\000\007\000\000\000\000\000"
 953      FFF80007 
 953      00000000 
 953      00
 954 00ec 001FFFFF 		.ascii	"\000\037\377\377\000\000\177\377\370\000\007\000\000"
 954      00007FFF 
 954      F8000700 
 954      00
 955 00f9 00000000 		.ascii	"\000\000\000\000\037\377\377\000\000 \000\220\000\007"
 955      1FFFFF00 
 955      00200090 
 955      0007
 956 0107 00000002 		.ascii	"\000\000\000\002\000\000\037\377\377\000\000\000\000"
 956      00001FFF 
 956      FF000000 
 956      00
 957 0114 00000700 		.ascii	"\000\000\007\000\000\000\000\000\000\037\377\377\000"
 957      00000000 
 957      001FFFFF 
ARM GAS  C:\Users\3kb\AppData\Local\Temp\ccoOmmoe.s 			page 65


 957      00
 958 0121 00000000 		.ascii	"\000\000\000\000\000\007\000\000\000\000\000\000\037"
 958      00070000 
 958      00000000 
 958      1F
 959 012e FFFF0000 		.ascii	"\377\377\000\000\000\000\000\000\007\000\000\000\000"
 959      00000000 
 959      07000000 
 959      00
 960 013b 00001FFF 		.ascii	"\000\000\037\377\377\000\000\000\000\000\000\007\000"
 960      FF000000 
 960      00000007 
 960      00
 961 0148 000003C0 		.ascii	"\000\000\003\300\000\037\377\377\000\000\000\000\000"
 961      001FFFFF 
 961      00000000 
 961      00
 962 0155 00070000 		.ascii	"\000\007\000\000\000\007\340@\037\377\377\000\000\000"
 962      0007E040 
 962      1FFFFF00 
 962      0000
 963 0163 00000007 		.ascii	"\000\000\000\007\000\000\000\003\300\000\037\377\377"
 963      00000003 
 963      C0001FFF 
 963      FF
 964 0170 00000000 		.ascii	"\000\000\000\000\000\000\003\000\000\000\030\030\000"
 964      00000300 
 964      00001818 
 964      00
 965 017d 1F07FF00 		.ascii	"\037\007\377\000\000\000\000\000\000\003\000\000\000"
 965      00000000 
 965      00030000 
 965      00
 966 018a 1818001F 		.ascii	"\030\030\000\037\007\377\000\000\000\000\000\000\003"
 966      07FF0000 
 966      00000000 
 966      03
 967 0197 00000018 		.ascii	"\000\000\000\030\000\000\034\007\377\000\000\000\000"
 967      00001C07 
 967      FF000000 
 967      00
 968 01a4 00000300 		.ascii	"\000\000\003\000\000\000\030\007\000\030\007\377\000"
 968      00001807 
 968      001807FF 
 968      00
 969 01b1 00000000 		.ascii	"\000\000\000\000\000\003\000\000\000\030\006\000\030"
 969      00030000 
 969      00180600 
 969      18
 970 01be 07FF0000 		.ascii	"\007\377\000\000\000\000\003\376\003\000\000\000\030"
 970      000003FE 
 970      03000000 
 970      18
 971 01cb 00FFE007 		.ascii	"\000\377\340\007\377\000\000\000\000\007\377\003\000"
 971      FF000000 
 971      0007FF03 
 971      00
ARM GAS  C:\Users\3kb\AppData\Local\Temp\ccoOmmoe.s 			page 66


 972 01d8 00001800 		.ascii	"\000\000\030\000\377\340\007\377\000\000\000\000\007"
 972      FFE007FF 
 972      00000000 
 972      07
 973 01e5 FF070000 		.ascii	"\377\007\000\000\000\030\000\377\300\007\377\000\000"
 973      001800FF 
 973      C007FF00 
 973      00
 974 01f2 00001807 		.ascii	"\000\000\030\007\377\000\000\000\030\000\000\000\007"
 974      FF000000 
 974      18000000 
 974      07
 975 01ff FF000000 		.ascii	"\377\000\000\000\000\030\007\377\000\000\000\030\000"
 975      001807FF 
 975      00000018 
 975      00
 976 020c 000007FF 		.ascii	"\000\000\007\377\000\000\000\000\037\000?\000\000\000"
 976      00000000 
 976      1F003F00 
 976      0000
 977 021a 00000000 		.ascii	"\000\000\000\000\001\377\000\000\000\000\037\000?\000"
 977      01FF0000 
 977      00001F00 
 977      3F00
 978 0228 0000E000 		.ascii	"\000\000\340\000\000\000\000\377\000\000\000\000\037"
 978      000000FF 
 978      00000000 
 978      1F
 979 0235 001F0000 		.ascii	"\000\037\000\000\000\340\000\000\000\000\377\000\000"
 979      00E00000 
 979      0000FF00 
 979      00
 980 0242 000000FF 		.ascii	"\000\000\000\377\307\000\000\000\340\003\000\000\300"
 980      C7000000 
 980      E0030000 
 980      C0
 981 024f FF000000 		.ascii	"\377\000\000\000\000\000\377\307\000\000\000\340\003"
 981      0000FFC7 
 981      000000E0 
 981      03
 982 025c 0000E0FF 		.ascii	"\000\000\340\377\000\000\000\000\000\377\347\000\000"
 982      00000000 
 982      00FFE700 
 982      00
 983 0269 00E00700 		.ascii	"\000\340\007\000\000\340\377\000\000\000\000\000\000"
 983      00E0FF00 
 983      00000000 
 983      00
 984 0276 FF000000 		.ascii	"\377\000\000\000\340\037\000\307\340\377\000\000\000"
 984      E01F00C7 
 984      E0FF0000 
 984      00
 985 0283 000000FF 		.ascii	"\000\000\000\377\000\000\000\340\037\000\347\340\377"
 985      000000E0 
 985      1F00E7E0 
 985      FF
 986 0290 00000000 		.ascii	"\000\000\000\000\000\000\377\000\000\000\340\032\000"
ARM GAS  C:\Users\3kb\AppData\Local\Temp\ccoOmmoe.s 			page 67


 986      0000FF00 
 986      0000E01A 
 986      00
 987 029d 4240FF00 		.ascii	"B@\377\000\000\000\000\000\000\007\000\000@\340\000"
 987      00000000 
 987      00070000 
 987      40E000
 988 02ac 000000FF 		.ascii	"\000\000\000\377\000\000\000\000\000\000\007\000\000"
 988      00000000 
 988      00000700 
 988      00
 989 02b9 00E00000 		.ascii	"\000\340\000\000\000\000\377\000\000\000\000\000\000"
 989      0000FF00 
 989      00000000 
 989      00
 990 02c6 07000000 		.ascii	"\007\000\000\000\340\007\007\007\000\377\000\000\000"
 990      E0070707 
 990      00FF0000 
 990      00
 991 02d3 00000007 		.ascii	"\000\000\000\007\000@\000\340\007\007\007\000\377\000"
 991      004000E0 
 991      07070700 
 991      FF00
 992 02e1 00000000 		.ascii	"\000\000\000\000\000\007\000\000\000@\007\007\007\000"
 992      00070000 
 992      00400707 
 992      0700
 993 02ef FF000800 		.ascii	"\377\000\010\000\000\000\000?\000\000\000\030\007\377"
 993      0000003F 
 993      00000018 
 993      07FF
 994 02fd FF07FF00 		.ascii	"\377\007\377\000\000\000\000\000\000?\000\000\000\030"
 994      00000000 
 994      003F0000 
 994      0018
 995 030b 07FFFF07 		.ascii	"\007\377\377\007\377\000\000\000\000\000\000\377\000"
 995      FF000000 
 995      000000FF 
 995      00
 996 0318 00000203 		.ascii	"\000\000\002\003\377\376\037\377\000\000\000\000\000"
 996      FFFE1FFF 
 996      00000000 
 996      00
 997 0325 01FFC000 		.ascii	"\001\377\300\000\000\007\000\000\000\037\377\000\000"
 997      00070000 
 997      001FFF00 
 997      00
 998 0332 00000001 		.ascii	"\000\000\000\001\377\300\000\000\007\000\000\000\037"
 998      FFC00000 
 998      07000000 
 998      1F
 999 033f FF000000 		.ascii	"\377\000\000\000\000\000\017\000\377\377\377\377\377"
 999      00000F00 
 999      FFFFFFFF 
 999      FF
 1000 034c FFFFFFFF 		.ascii	"\377\377\377\377\000\000\000\000\000\007\000\377\377"
 1000      00000000 
ARM GAS  C:\Users\3kb\AppData\Local\Temp\ccoOmmoe.s 			page 68


 1000      000700FF 
 1000      FF
 1001 0359 FFFFFFFF 		.ascii	"\377\377\377\377\377\377\377\177\377\000\000\007\377"
 1001      FFFFFF7F 
 1001      FF000007 
 1001      FF
 1002 0366 00FFFFFF 		.ascii	"\000\377\377\377\377\377\377\377\377\377\377\377\000"
 1002      FFFFFFFF 
 1002      FFFFFFFF 
 1002      00
 1003 0373 0007FF07 		.ascii	"\000\007\377\007\370\037\377\377\007\370\037\377\377"
 1003      F81FFFFF 
 1003      07F81FFF 
 1003      FF
 1004 0380 FFFF0000 		.ascii	"\377\377\000\000\007\377\007\370\037\377\377\007\370"
 1004      07FF07F8 
 1004      1FFFFF07 
 1004      F8
 1005 038d 1FFFFFFF 		.ascii	"\037\377\377\377\377\377\377\377\377\007\374?\377\377"
 1005      FFFFFFFF 
 1005      FF07FC3F 
 1005      FFFF
 1006 039b 07FC3FFF 		.ascii	"\007\374?\377\377\377\377\377\377\377\377\377\377\377"
 1006      FFFFFFFF 
 1006      FFFFFFFF 
 1006      FFFF
 1007 03a9 FFFFFFFF 		.ascii	"\377\377\377\377\377\377\377\377\377\377\377\377\377"
 1007      FFFFFFFF 
 1007      FFFFFFFF 
 1007      FF
 1008 03b6 FFFFFFFF 		.ascii	"\377\377\377\377\377\377\377\377\377\377\377\377\377"
 1008      FFFFFFFF 
 1008      FFFFFFFF 
 1008      FF
 1009 03c3 FFFFFFFF 		.ascii	"\377\377\377\377\377\377\377\377\377\377\377\377\377"
 1009      FFFFFFFF 
 1009      FFFFFFFF 
 1009      FF
 1010 03d0 FFFFFFFF 		.ascii	"\377\377\377\377\377\377\377\377\377\377\377\377\377"
 1010      FFFFFFFF 
 1010      FFFFFFFF 
 1010      FF
 1011 03dd FFFFFFFF 		.ascii	"\377\377\377\377\377\377\377\377\377\377\377\377\377"
 1011      FFFFFFFF 
 1011      FFFFFFFF 
 1011      FF
 1012 03ea FFFFFFFF 		.ascii	"\377\377\377\377\377\377\377\377\377\377\377\377\377"
 1012      FFFFFFFF 
 1012      FFFFFFFF 
 1012      FF
 1013 03f7 FFFFFFFF 		.ascii	"\377\377\377\377\377\377\377\377\377"
 1013      FFFFFFFF 
 1013      FF
 1014              		.global	nyan_cat_07
 1015              		.section	.rodata.nyan_cat_07,"a"
 1016              		.align	2
 1019              	nyan_cat_07:
ARM GAS  C:\Users\3kb\AppData\Local\Temp\ccoOmmoe.s 			page 69


 1020 0000 FFFFFFFF 		.ascii	"\377\377\377\377\377\377\377\377\377\377\377\377\377"
 1020      FFFFFFFF 
 1020      FFFFFFFF 
 1020      FF
 1021 000d FFFFFFFF 		.ascii	"\377\377\377\377\377\377\377\377\377\377\377\377\377"
 1021      FFFFFFFF 
 1021      FFFFFFFF 
 1021      FF
 1022 001a FFFFFFFF 		.ascii	"\377\377\377\377\377\377\377\377\377\377\377\377\377"
 1022      FFFFFFFF 
 1022      FFFFFFFF 
 1022      FF
 1023 0027 FFFFFFFF 		.ascii	"\377\377\377\377\377\377\377\377\377\377\377\377\377"
 1023      FFFFFFFF 
 1023      FFFFFFFF 
 1023      FF
 1024 0034 FFFFFFFF 		.ascii	"\377\377\377\377\377\377\377\377\377\377\377\377\377"
 1024      FFFFFFFF 
 1024      FFFFFFFF 
 1024      FF
 1025 0041 FFFFFFFF 		.ascii	"\377\377\377\377\377\377\377\377\377\377\377\377\377"
 1025      FFFFFFFF 
 1025      FFFFFFFF 
 1025      FF
 1026 004e FFFFFFFF 		.ascii	"\377\377\377\377\377\377\377\377\377\377\377\377\377"
 1026      FFFFFFFF 
 1026      FFFFFFFF 
 1026      FF
 1027 005b FFFFFFFF 		.ascii	"\377\377\377\377\377\377\377\377\377\177\377\377\377"
 1027      FFFFFFFF 
 1027      FF7FFFFF 
 1027      FF
 1028 0068 FFFFFFFF 		.ascii	"\377\377\377\377\377\377\377\377\377\370\000\000\037"
 1028      FFFFFFFF 
 1028      FFF80000 
 1028      1F
 1029 0075 FFFFFFFF 		.ascii	"\377\377\377\377\377\377\377\377\377\377\377\377\377"
 1029      FFFFFFFF 
 1029      FFFFFFFF 
 1029      FF
 1030 0082 FFFF9FFF 		.ascii	"\377\377\237\377\377\377\377\377\377\377\377\377\377"
 1030      FFFFFFFF 
 1030      FFFFFFFF 
 1030      FF
 1031 008f FF0003FF 		.ascii	"\377\000\003\377\377\300\000\000\300\000\000\000\000"
 1031      FFC00000 
 1031      C0000000 
 1031      00
 1032 009c 00FFFFFF 		.ascii	"\000\377\377\377\000\007\377\377\300\000\000\300\000"
 1032      0007FFFF 
 1032      C00000C0 
 1032      00
 1033 00a9 00000000 		.ascii	"\000\000\000\000\377\377\377\177\377\377\377\377\377"
 1033      FFFFFF7F 
 1033      FFFFFFFF 
 1033      FF
 1034 00b6 F7C00000 		.ascii	"\367\300\000\000\000\000\000\377\377\377\177\377\377"
ARM GAS  C:\Users\3kb\AppData\Local\Temp\ccoOmmoe.s 			page 70


 1034      000000FF 
 1034      FFFF7FFF 
 1034      FF
 1035 00c3 FFFFFFF7 		.ascii	"\377\377\377\367\000\000\000\000\000\000\037\377\377"
 1035      00000000 
 1035      00001FFF 
 1035      FF
 1036 00d0 7FFFFFFF 		.ascii	"\177\377\377\377\377\377\367\000\000\000\000\000\000"
 1036      FFFFF700 
 1036      00000000 
 1036      00
 1037 00dd 1FFFFF7F 		.ascii	"\037\377\377\177\370\000\000\037\377\367\000\000\000"
 1037      F800001F 
 1037      FFF70000 
 1037      00
 1038 00ea 0000001F 		.ascii	"\000\000\000\037\377\377\177\370\000\000\037\377\367"
 1038      FFFF7FF8 
 1038      00001FFF 
 1038      F7
 1039 00f7 00000000 		.ascii	"\000\000\000\000\000\000\037\377\377\000\000\000\000"
 1039      00001FFF 
 1039      FF000000 
 1039      00
 1040 0104 00000700 		.ascii	"\000\000\007\000\000\000\000\000\000\037\377\377\000"
 1040      00000000 
 1040      001FFFFF 
 1040      00
 1041 0111 00000000 		.ascii	"\000\000\000\000\000\007\000\000\000\000\000\000\037"
 1041      00070000 
 1041      00000000 
 1041      1F
 1042 011e FFFF0000 		.ascii	"\377\377\000\000\000\000\000\000\007\000\000\000\000"
 1042      00000000 
 1042      07000000 
 1042      00
 1043 012b 00001FFF 		.ascii	"\000\000\037\377\377\000\000\000\000\000\000\007\000"
 1043      FF000000 
 1043      00000007 
 1043      00
 1044 0138 00000000 		.ascii	"\000\000\000\000\000\037\377\377\000\000\000\000\000"
 1044      001FFFFF 
 1044      00000000 
 1044      00
 1045 0145 00070000 		.ascii	"\000\007\000\000\000\000x\000\037\377\377\000\000\000"
 1045      00007800 
 1045      1FFFFF00 
 1045      0000
 1046 0153 00000007 		.ascii	"\000\000\000\007\000\000\000\000\370@\037\377\377\000"
 1046      00000000 
 1046      F8401FFF 
 1046      FF00
 1047 0161 00000000 		.ascii	"\000\000\000\000\000\007\000\000\000\000\370\000\037"
 1047      00070000 
 1047      0000F800 
 1047      1F
 1048 016e FFFF0000 		.ascii	"\377\377\000\000\000\000\000\000\007\000\000\000\003"
 1048      00000000 
ARM GAS  C:\Users\3kb\AppData\Local\Temp\ccoOmmoe.s 			page 71


 1048      07000000 
 1048      03
 1049 017b 06001FE0 		.ascii	"\006\000\037\340\377\000\000\000\000\000\000\007\000"
 1049      FF000000 
 1049      00000007 
 1049      00
 1050 0188 00000707 		.ascii	"\000\000\007\007\000\037\340\377\000\000\000\000\000"
 1050      001FE0FF 
 1050      00000000 
 1050      00
 1051 0195 00030000 		.ascii	"\000\003\000\000\000\007\000\000\037\000\377\000\000"
 1051      00070000 
 1051      1F00FF00 
 1051      00
 1052 01a2 00000000 		.ascii	"\000\000\000\000\003\000\000\000\007\000\340\037\000"
 1052      03000000 
 1052      0700E01F 
 1052      00
 1053 01af FF000000 		.ascii	"\377\000\000\000\000\000\000\003\000\000\000\007\000"
 1053      00000003 
 1053      00000007 
 1053      00
 1054 01bc C01F00FF 		.ascii	"\300\037\000\377\000\000\000\000\000\000\003\000\000"
 1054      00000000 
 1054      00000300 
 1054      00
 1055 01c9 0007001F 		.ascii	"\000\007\000\037\370\000\377\000\000\000\000\000\000"
 1055      F800FF00 
 1055      00000000 
 1055      00
 1056 01d6 03000000 		.ascii	"\003\000\000\000\007\000\037\370\000\377\000\000\000"
 1056      07001FF8 
 1056      00FF0000 
 1056      00
 1057 01e3 00000003 		.ascii	"\000\000\000\003\000\000\000\007\000\037\370\000\377"
 1057      00000007 
 1057      001FF800 
 1057      FF
 1058 01f0 00000000 		.ascii	"\000\000\000\000\000\000\003\000\000\000\007\000\000"
 1058      00000300 
 1058      00000700 
 1058      00
 1059 01fd 0000FF00 		.ascii	"\000\000\377\000\000\000\000\000\000\003\000\000\000"
 1059      00000000 
 1059      00030000 
 1059      00
 1060 020a 07000000 		.ascii	"\007\000\000\000\000\377\000\000\000\000\000\000\007"
 1060      00FF0000 
 1060      00000000 
 1060      07
 1061 0217 00000000 		.ascii	"\000\000\000\000\000\000\000\000?\000\000\000\000\000"
 1061      00000000 
 1061      3F000000 
 1061      0000
 1062 0225 00FF0000 		.ascii	"\000\377\000\000\002\030\000\000\000\000\037\000\000"
 1062      02180000 
 1062      00001F00 
ARM GAS  C:\Users\3kb\AppData\Local\Temp\ccoOmmoe.s 			page 72


 1062      00
 1063 0232 00000000 		.ascii	"\000\000\000\000\377\000\000\000\030\000\000\000\000"
 1063      FF000000 
 1063      18000000 
 1063      00
 1064 023f 1F000000 		.ascii	"\037\000\000\000\000\000\037\007\000\000\000\030\000"
 1064      00001F07 
 1064      00000018 
 1064      00
 1065 024c C000181F 		.ascii	"\300\000\030\037\000\000\000\000\000\037\007\000\000"
 1065      00000000 
 1065      001F0700 
 1065      00
 1066 0259 001800E0 		.ascii	"\000\030\000\340\000\030\037\000\000\000\000\000\037"
 1066      00181F00 
 1066      00000000 
 1066      1F
 1067 0266 07000000 		.ascii	"\007\000\000\000\030\000\340\000\030\037\000\000\000"
 1067      1800E000 
 1067      181F0000 
 1067      00
 1068 0273 0000E007 		.ascii	"\000\000\340\007\000\000\000\030\007\340\030\370\037"
 1068      00000018 
 1068      07E018F8 
 1068      1F
 1069 0280 00000000 		.ascii	"\000\000\000\000\000\340\007\000\000\000\030\007\340"
 1069      00E00700 
 1069      00001807 
 1069      E0
 1070 028d 18F81F00 		.ascii	"\030\370\037\000\000\000\000\007\303\347\000\000\000"
 1070      00000007 
 1070      C3E70000 
 1070      00
 1071 029a 18024018 		.ascii	"\030\002@\030\030\037\000\000\000\000\007\007\377\000"
 1071      181F0000 
 1071      00000707 
 1071      FF00
 1072 02a8 00401800 		.ascii	"\000@\030\000\000\000\000\037\000\000\000\000\007\007"
 1072      0000001F 
 1072      00000000 
 1072      0707
 1073 02b6 FF000000 		.ascii	"\377\000\000\000\030\000\000\000\000\037\000\000\000"
 1073      18000000 
 1073      001F0000 
 1073      00
 1074 02c3 0007070F 		.ascii	"\000\007\007\017\000\000\000\030\000\340\300\340\037"
 1074      00000018 
 1074      00E0C0E0 
 1074      1F
 1075 02d0 00000000 		.ascii	"\000\000\000\000\007\007\007\000\000\000\030\000\340"
 1075      07070700 
 1075      00001800 
 1075      E0
 1076 02dd E0E01F00 		.ascii	"\340\340\037\000\000\000\000\007\007\007\000\000\000"
 1076      00000007 
 1076      07070000 
 1076      00
ARM GAS  C:\Users\3kb\AppData\Local\Temp\ccoOmmoe.s 			page 73


 1077 02ea 0800E0E0 		.ascii	"\010\000\340\340\340\037\000\000\000\000\000\374\007"
 1077      E01F0000 
 1077      000000FC 
 1077      07
 1078 02f7 00000007 		.ascii	"\000\000\000\007\000\377\377\340\377\000\000\000\000"
 1078      00FFFFE0 
 1078      FF000000 
 1078      00
 1079 0304 00FC0700 		.ascii	"\000\374\007\000\000\000\007\000\377\377\340\377\000"
 1079      00000700 
 1079      FFFFE0FF 
 1079      00
 1080 0311 00000001 		.ascii	"\000\000\000\001\374\007\000\000\000\000@\177\377\301"
 1080      FC070000 
 1080      0000407F 
 1080      FFC1
 1081 031f FF000000 		.ascii	"\377\000\000\000\000\000\000\007\300\000\000\000\340"
 1081      00000007 
 1081      C0000000 
 1081      E0
 1082 032c 000007FF 		.ascii	"\000\000\007\377\000\000\000\000\000\000\017\300\000"
 1082      00000000 
 1082      00000FC0 
 1082      00
 1083 0339 0000E000 		.ascii	"\000\000\340\000\000\007\377\000\000\000\000\000\000"
 1083      0007FF00 
 1083      00000000 
 1083      00
 1084 0346 381FFFFF 		.ascii	"8\037\377\377\377\377\377\377\377\377\000\000\000\000"
 1084      FFFFFFFF 
 1084      FFFF0000 
 1084      0000
 1085 0354 0000383F 		.ascii	"\000\0008?\377\377\377\377\377\377\377\377\000\007\377"
 1085      FFFFFFFF 
 1085      FFFFFFFF 
 1085      0007FF
 1086 0363 FFE00038 		.ascii	"\377\340\0008?\377\377\377\377\377\377\377\377\000\007"
 1086      3FFFFFFF 
 1086      FFFFFFFF 
 1086      FF0007
 1087 0372 FFFFE000 		.ascii	"\377\377\340\0008\037\340\377\377\370\037\340\377\377"
 1087      381FE0FF 
 1087      FFF81FE0 
 1087      FFFF
 1088 0380 0007FFFF 		.ascii	"\000\007\377\377\340\0008\037\340\377\377\370\037\300"
 1088      E000381F 
 1088      E0FFFFF8 
 1088      1FC0
 1089 038e FFFFFFFF 		.ascii	"\377\377\377\377\377\377\377\377\374?\340\377\377\370"
 1089      FFFFFFFF 
 1089      FC3FE0FF 
 1089      FFF8
 1090 039c 3FE0FFFF 		.ascii	"?\340\377\377\377\377\377\377\377\377\377\377\377\377"
 1090      FFFFFFFF 
 1090      FFFFFFFF 
 1090      FFFF
 1091 03aa FFFFFFFF 		.ascii	"\377\377\377\377\377\377\377\377\377\377\377\377\377"
ARM GAS  C:\Users\3kb\AppData\Local\Temp\ccoOmmoe.s 			page 74


 1091      FFFFFFFF 
 1091      FFFFFFFF 
 1091      FF
 1092 03b7 FFFFFFFF 		.ascii	"\377\377\377\377\377\377\377\377\377\377\377\377\377"
 1092      FFFFFFFF 
 1092      FFFFFFFF 
 1092      FF
 1093 03c4 FFFFFFFF 		.ascii	"\377\377\377\377\377\377\377\377\377\377\377\377\377"
 1093      FFFFFFFF 
 1093      FFFFFFFF 
 1093      FF
 1094 03d1 FFFFFFFF 		.ascii	"\377\377\377\377\377\377\377\377\377\377\377\377\377"
 1094      FFFFFFFF 
 1094      FFFFFFFF 
 1094      FF
 1095 03de FFFFFFFF 		.ascii	"\377\377\377\377\377\377\377\377\377\377\377\377\377"
 1095      FFFFFFFF 
 1095      FFFFFFFF 
 1095      FF
 1096 03eb FFFFFFFF 		.ascii	"\377\377\377\377\377\377\377\377\377\377\377\377\377"
 1096      FFFFFFFF 
 1096      FFFFFFFF 
 1096      FF
 1097 03f8 FFFFFFFF 		.ascii	"\377\377\377\377\377\377\377\377"
 1097      FFFFFFFF 
 1098              		.global	nyan_cat_06
 1099              		.section	.rodata.nyan_cat_06,"a"
 1100              		.align	2
 1103              	nyan_cat_06:
 1104 0000 FFFFFFFF 		.ascii	"\377\377\377\377\377\377\377\377\377\377\377\377\377"
 1104      FFFFFFFF 
 1104      FFFFFFFF 
 1104      FF
 1105 000d FFFFFFFF 		.ascii	"\377\377\377\377\377\377\377\377\377\377\377\377\377"
 1105      FFFFFFFF 
 1105      FFFFFFFF 
 1105      FF
 1106 001a FFFFFFFF 		.ascii	"\377\377\377\377\377\377\377\377\377\377\377\377\377"
 1106      FFFFFFFF 
 1106      FFFFFFFF 
 1106      FF
 1107 0027 FFFFFFFF 		.ascii	"\377\377\377\377\377\377\377\377\377\377\377\377\377"
 1107      FFFFFFFF 
 1107      FFFFFFFF 
 1107      FF
 1108 0034 FFFFFFFF 		.ascii	"\377\377\377\377\377\377\377\377\377\377\377\377\377"
 1108      FFFFFFFF 
 1108      FFFFFFFF 
 1108      FF
 1109 0041 FFFFFFFF 		.ascii	"\377\377\377\377\377\377\377\377\377\377\377\377\377"
 1109      FFFFFFFF 
 1109      FFFFFFFF 
 1109      FF
 1110 004e FFFFFFFF 		.ascii	"\377\377\377\377\377\377\377\377\377\377\377\377\377"
 1110      FFFFFFFF 
 1110      FFFFFFFF 
 1110      FF
ARM GAS  C:\Users\3kb\AppData\Local\Temp\ccoOmmoe.s 			page 75


 1111 005b FFFFFFFF 		.ascii	"\377\377\377\377\377\377\377\377\377\377\377\377\377"
 1111      FFFFFFFF 
 1111      FFFFFFFF 
 1111      FF
 1112 0068 FFFFFFFF 		.ascii	"\377\377\377\377\377\377\377\377\377\370\000\000\037"
 1112      FFFFFFFF 
 1112      FFF80000 
 1112      1F
 1113 0075 FFFFFFFF 		.ascii	"\377\377\377\377\377\377\377\377\377\377\377\377\377"
 1113      FFFFFFFF 
 1113      FFFFFFFF 
 1113      FF
 1114 0082 FFFF9FFF 		.ascii	"\377\377\237\377\377\377\377\377\377\377\377\377\377"
 1114      FFFFFFFF 
 1114      FFFFFFFF 
 1114      FF
 1115 008f FF0007FF 		.ascii	"\377\000\007\377\377\300\000\001\300\000\000\000\000"
 1115      FFC00001 
 1115      C0000000 
 1115      00
 1116 009c 00FFFFFF 		.ascii	"\000\377\377\377\000\003\377\377\300\000\000\300\000"
 1116      0003FFFF 
 1116      C00000C0 
 1116      00
 1117 00a9 00000000 		.ascii	"\000\000\000\000\377\377\377\177\377\377\377\377\377"
 1117      FFFFFF7F 
 1117      FFFFFFFF 
 1117      FF
 1118 00b6 F7C00000 		.ascii	"\367\300\000\000\000\000\000\377\377\377\177\377\377"
 1118      000000FF 
 1118      FFFF7FFF 
 1118      FF
 1119 00c3 FFFFFFF7 		.ascii	"\377\377\377\367\000\000\000\000\000\000\037\377\377"
 1119      00000000 
 1119      00001FFF 
 1119      FF
 1120 00d0 7FFFFFFF 		.ascii	"\177\377\377\377\377\377\367\000\000\000\000\000\000"
 1120      FFFFF700 
 1120      00000000 
 1120      00
 1121 00dd 1FFFFF7F 		.ascii	"\037\377\377\177\370\000\000\037\377\367\000\000\000"
 1121      F800001F 
 1121      FFF70000 
 1121      00
 1122 00ea 0000001F 		.ascii	"\000\000\000\037\377\377\177\370\000\000\037\377\367"
 1122      FFFF7FF8 
 1122      00001FFF 
 1122      F7
 1123 00f7 00000000 		.ascii	"\000\000\000\000\000\000\037\377\377\000\000\000\000"
 1123      00001FFF 
 1123      FF000000 
 1123      00
 1124 0104 00000700 		.ascii	"\000\000\007\000\000\000\000\000\000\037\377\377\000"
 1124      00000000 
 1124      001FFFFF 
 1124      00
 1125 0111 00000000 		.ascii	"\000\000\000\000\000\007\000\000\000\000\000\000\037"
ARM GAS  C:\Users\3kb\AppData\Local\Temp\ccoOmmoe.s 			page 76


 1125      00070000 
 1125      00000000 
 1125      1F
 1126 011e FFFF0000 		.ascii	"\377\377\000\000\000\000\000\000\007\000\000\000\000"
 1126      00000000 
 1126      07000000 
 1126      00
 1127 012b 00001FFF 		.ascii	"\000\000\037\377\377\000\000\000\000\000\000\007\000"
 1127      FF000000 
 1127      00000007 
 1127      00
 1128 0138 00000000 		.ascii	"\000\000\000\000\000\037\377\377\000\000\000\000\000"
 1128      001FFFFF 
 1128      00000000 
 1128      00
 1129 0145 00070000 		.ascii	"\000\007\000\000\000\000X\000\037\377\377\000\000\000"
 1129      00005800 
 1129      1FFFFF00 
 1129      0000
 1130 0153 00000007 		.ascii	"\000\000\000\007\000\000\000\000\370@\037\377\377\000"
 1130      00000000 
 1130      F8401FFF 
 1130      FF00
 1131 0161 00000000 		.ascii	"\000\000\000\000\000\007\000\000\000\000\370\000\037"
 1131      00070000 
 1131      0000F800 
 1131      1F
 1132 016e FFFF0000 		.ascii	"\377\377\000\000\000\000\000\000\007\000\000\000\003"
 1132      00000000 
 1132      07000000 
 1132      03
 1133 017b 06001FE0 		.ascii	"\006\000\037\340\377\000\000\000\000\000\000\007\000"
 1133      FF000000 
 1133      00000007 
 1133      00
 1134 0188 00000707 		.ascii	"\000\000\007\007\000\037\340\377\000\000\000\000\000"
 1134      001FE0FF 
 1134      00000000 
 1134      00
 1135 0195 00030000 		.ascii	"\000\003\000\000\000\007\000\000\037\000\377\000\000"
 1135      00070000 
 1135      1F00FF00 
 1135      00
 1136 01a2 00000000 		.ascii	"\000\000\000\000\003\000\000\000\007\000\340\037\000"
 1136      03000000 
 1136      0700E01F 
 1136      00
 1137 01af FF000000 		.ascii	"\377\000\000\000\000\000\000\003\000\000\000\007\000"
 1137      00000003 
 1137      00000007 
 1137      00
 1138 01bc C01F00FF 		.ascii	"\300\037\000\377\000\000\000\000\000\000\003\000\000"
 1138      00000000 
 1138      00000300 
 1138      00
 1139 01c9 0007001F 		.ascii	"\000\007\000\037\370\000\377\000\000\000\000\000\000"
 1139      F800FF00 
ARM GAS  C:\Users\3kb\AppData\Local\Temp\ccoOmmoe.s 			page 77


 1139      00000000 
 1139      00
 1140 01d6 03000000 		.ascii	"\003\000\000\000\007\000\037\370\000\377\000\000\000"
 1140      07001FF8 
 1140      00FF0000 
 1140      00
 1141 01e3 00000003 		.ascii	"\000\000\000\003\000\000\000\007\000\037\370\000\377"
 1141      00000007 
 1141      001FF800 
 1141      FF
 1142 01f0 00000000 		.ascii	"\000\000\000\000\000\000\003\000\000\000\007\000\000"
 1142      00000300 
 1142      00000700 
 1142      00
 1143 01fd 0000FF00 		.ascii	"\000\000\377\000\000\000\000\000\000\003\000\000\000"
 1143      00000000 
 1143      00030000 
 1143      00
 1144 020a 07000000 		.ascii	"\007\000\000\000\000\377\000\000\000\000\000\000\007"
 1144      00FF0000 
 1144      00000000 
 1144      07
 1145 0217 00000000 		.ascii	"\000\000\000\000\000\000\000\000?\000\000\000\000\000"
 1145      00000000 
 1145      3F000000 
 1145      0000
 1146 0225 001F0000 		.ascii	"\000\037\000\000\002\030\000\000\000\000\037\000\000"
 1146      02180000 
 1146      00001F00 
 1146      00
 1147 0232 00000000 		.ascii	"\000\000\000\000?\000\000\000\030\000\000\000\000\037"
 1147      3F000000 
 1147      18000000 
 1147      001F
 1148 0240 00000000 		.ascii	"\000\000\000\000\000\037\377\000\000\000\030\000\300"
 1148      001FFF00 
 1148      00001800 
 1148      C0
 1149 024d 00181F00 		.ascii	"\000\030\037\000\000\000\000\000\037\377\000\000\000"
 1149      00000000 
 1149      1FFF0000 
 1149      00
 1150 025a 1800E000 		.ascii	"\030\000\340\000\030\037\000\000\000\000\000\037\377"
 1150      181F0000 
 1150      0000001F 
 1150      FF
 1151 0267 00000018 		.ascii	"\000\000\000\030\000\340\000\030\037\000\000\000\000"
 1151      00E00018 
 1151      1F000000 
 1151      00
 1152 0274 07E00700 		.ascii	"\007\340\007\000\000\000\030\007\340\030\370\037\000"
 1152      00001807 
 1152      E018F81F 
 1152      00
 1153 0281 00000007 		.ascii	"\000\000\000\007\340\007\000\000\000\030\007\340\030"
 1153      E0070000 
 1153      001807E0 
ARM GAS  C:\Users\3kb\AppData\Local\Temp\ccoOmmoe.s 			page 78


 1153      18
 1154 028e F81F0000 		.ascii	"\370\037\000\000\000\000\007\300w\000\000\000\030\002"
 1154      000007C0 
 1154      77000000 
 1154      1802
 1155 029c 4018581F 		.ascii	"@\030X\037\000\000\000\000\007\000\377\000\000@\030"
 1155      00000000 
 1155      0700FF00 
 1155      004018
 1156 02ab 00000000 		.ascii	"\000\000\000\000\037\000\000\000\000\007\000\377\000"
 1156      1F000000 
 1156      000700FF 
 1156      00
 1157 02b8 00001800 		.ascii	"\000\000\030\000\000\000\000\037\000\000\000\000\001"
 1157      0000001F 
 1157      00000000 
 1157      01
 1158 02c5 FFEF0000 		.ascii	"\377\357\000\000\000\030\000\340\300\340\037\000\000"
 1158      001800E0 
 1158      C0E01F00 
 1158      00
 1159 02d2 000001FF 		.ascii	"\000\000\001\377\347\000\000\000\030\000\340\340\340"
 1159      E7000000 
 1159      1800E0E0 
 1159      E0
 1160 02df 1F000000 		.ascii	"\037\000\000\000\000\000\377\307\000\000\000\010\000"
 1160      0000FFC7 
 1160      00000008 
 1160      00
 1161 02ec E0E0E01F 		.ascii	"\340\340\340\037\000\000\000\000\000\000\007\000\000"
 1161      00000000 
 1161      00000700 
 1161      00
 1162 02f9 000700FF 		.ascii	"\000\007\000\377\377\340\377\000\000\000\000\000\000"
 1162      FFE0FF00 
 1162      00000000 
 1162      00
 1163 0306 07000000 		.ascii	"\007\000\000\000\007\000\377\377\340\377\000\000\000"
 1163      0700FFFF 
 1163      E0FF0000 
 1163      00
 1164 0313 00000007 		.ascii	"\000\000\000\007\000\000\000\000\300\177\377\301\377"
 1164      00000000 
 1164      C07FFFC1 
 1164      FF
 1165 0320 00000000 		.ascii	"\000\000\000\000\000\000\007\300\000\000\000\340\000"
 1165      000007C0 
 1165      000000E0 
 1165      00
 1166 032d 0007FF00 		.ascii	"\000\007\377\000\000\000\000\000\000\007\300\000\000"
 1166      00000000 
 1166      0007C000 
 1166      00
 1167 033a 00E00000 		.ascii	"\000\340\000\000\007\377\000\000\000\000\000\000\007"
 1167      07FF0000 
 1167      00000000 
 1167      07
ARM GAS  C:\Users\3kb\AppData\Local\Temp\ccoOmmoe.s 			page 79


 1168 0347 1FFFFFFF 		.ascii	"\037\377\377\377\377\377\377\377\377\000\000\000\000"
 1168      FFFFFFFF 
 1168      FF000000 
 1168      00
 1169 0354 0000073F 		.ascii	"\000\000\007?\377\377\377\377\377\377\377\377\000\003"
 1169      FFFFFFFF 
 1169      FFFFFFFF 
 1169      0003
 1170 0362 FFFFC000 		.ascii	"\377\377\300\000\007\037\377\377\377\377\377\377\377"
 1170      071FFFFF 
 1170      FFFFFFFF 
 1170      FF
 1171 036f FF0007FF 		.ascii	"\377\000\007\377\377\340\000\007\007\370\037\377\377"
 1171      FFE00007 
 1171      07F81FFF 
 1171      FF
 1172 037c 07F83FFF 		.ascii	"\007\370?\377\000\007\377\377\340\000\007\007\370\037"
 1172      0007FFFF 
 1172      E0000707 
 1172      F81F
 1173 038a FFFF07F8 		.ascii	"\377\377\007\370\037\377\377\377\377\377\377\377\377"
 1173      1FFFFFFF 
 1173      FFFFFFFF 
 1173      FF
 1174 0397 07F83FFF 		.ascii	"\007\370?\377\377\007\374?\377\377\377\377\377\377\377"
 1174      FF07FC3F 
 1174      FFFFFFFF 
 1174      FFFFFF
 1175 03a6 FFFFFFFF 		.ascii	"\377\377\377\377\377\377\377\377\377\377\377\377\377"
 1175      FFFFFFFF 
 1175      FFFFFFFF 
 1175      FF
 1176 03b3 FFFFFFFF 		.ascii	"\377\377\377\377\377\377\377\377\377\377\377\377\377"
 1176      FFFFFFFF 
 1176      FFFFFFFF 
 1176      FF
 1177 03c0 FFFFFFFF 		.ascii	"\377\377\377\377\377\377\377\377\377\377\377\377\377"
 1177      FFFFFFFF 
 1177      FFFFFFFF 
 1177      FF
 1178 03cd FFFFFFFF 		.ascii	"\377\377\377\377\377\377\377\377\377\377\377\377\377"
 1178      FFFFFFFF 
 1178      FFFFFFFF 
 1178      FF
 1179 03da FFFFFFFF 		.ascii	"\377\377\377\377\377\377\377\377\377\377\377\377\377"
 1179      FFFFFFFF 
 1179      FFFFFFFF 
 1179      FF
 1180 03e7 FFFFFFFF 		.ascii	"\377\377\377\377\377\377\377\377\377\377\377\377\377"
 1180      FFFFFFFF 
 1180      FFFFFFFF 
 1180      FF
 1181 03f4 FFFFFFFF 		.ascii	"\377\377\377\377\377\377\377\377\377\377\377\377"
 1181      FFFFFFFF 
 1181      FFFFFFFF 
 1182              		.global	nyan_cat_05
 1183              		.section	.rodata.nyan_cat_05,"a"
ARM GAS  C:\Users\3kb\AppData\Local\Temp\ccoOmmoe.s 			page 80


 1184              		.align	2
 1187              	nyan_cat_05:
 1188 0000 FFFFFFFF 		.ascii	"\377\377\377\377\377\377\377\377\377\377\377\377\377"
 1188      FFFFFFFF 
 1188      FFFFFFFF 
 1188      FF
 1189 000d FFFFFFFF 		.ascii	"\377\377\377\377\377\377\377\377\377\377\377\377\377"
 1189      FFFFFFFF 
 1189      FFFFFFFF 
 1189      FF
 1190 001a FFFFFFFF 		.ascii	"\377\377\377\377\377\377\377\377\377\377\377\377\377"
 1190      FFFFFFFF 
 1190      FFFFFFFF 
 1190      FF
 1191 0027 FFFFFFFF 		.ascii	"\377\377\377\377\377\377\377\377\377\377\377\377\377"
 1191      FFFFFFFF 
 1191      FFFFFFFF 
 1191      FF
 1192 0034 FFFFFFFF 		.ascii	"\377\377\377\377\377\377\377\377\377\377\377\377\377"
 1192      FFFFFFFF 
 1192      FFFFFFFF 
 1192      FF
 1193 0041 FFFFFFFF 		.ascii	"\377\377\377\377\377\377\377\377\377\377\377\377\377"
 1193      FFFFFFFF 
 1193      FFFFFFFF 
 1193      FF
 1194 004e FFFFFFFF 		.ascii	"\377\377\377\377\377\377\377\377\377\377\377\377\377"
 1194      FFFFFFFF 
 1194      FFFFFFFF 
 1194      FF
 1195 005b FFFFFFFF 		.ascii	"\377\377\377\377\377\177\377\377\377\375\377\377\340"
 1195      FF7FFFFF 
 1195      FFFDFFFF 
 1195      E0
 1196 0068 00000000 		.ascii	"\000\000\000\000\000\377\377\377\000\000\377\377\370"
 1196      00FFFFFF 
 1196      0000FFFF 
 1196      F8
 1197 0075 0000C000 		.ascii	"\000\000\300\000\000\000\000\000\377\377\377\177\374"
 1197      00000000 
 1197      FFFFFF7F 
 1197      FC
 1198 0082 FFFFFBFF 		.ascii	"\377\377\373\377\360\300\000\000\000\000\000\377\377"
 1198      F0C00000 
 1198      000000FF 
 1198      FF
 1199 008f FF7FFE00 		.ascii	"\377\177\376\000\000\003\377\363\000\000\000\000\000"
 1199      0003FFF3 
 1199      00000000 
 1199      00
 1200 009c 001FFFFF 		.ascii	"\000\037\377\377\177\376\000\000\003\377\367\000\000"
 1200      7FFE0000 
 1200      03FFF700 
 1200      00
 1201 00a9 00000000 		.ascii	"\000\000\000\000\037\377\377\177\377\377\377\377\377"
 1201      1FFFFF7F 
 1201      FFFFFFFF 
ARM GAS  C:\Users\3kb\AppData\Local\Temp\ccoOmmoe.s 			page 81


 1201      FF
 1202 00b6 F7000000 		.ascii	"\367\000\000\000\000\000\000\037\377\377\177\377\377"
 1202      0000001F 
 1202      FFFF7FFF 
 1202      FF
 1203 00c3 FFFFFFF7 		.ascii	"\377\377\377\367\000\000\000\000\000\000\037\377\377"
 1203      00000000 
 1203      00001FFF 
 1203      FF
 1204 00d0 7FFFFFFF 		.ascii	"\177\377\377\377\377\377\367\000\000\002\002\000\000"
 1204      FFFFF700 
 1204      00020200 
 1204      00
 1205 00dd 1FFFFF00 		.ascii	"\037\377\377\000\000\377\377\370\000\007\000\000\000"
 1205      00FFFFF8 
 1205      00070000 
 1205      00
 1206 00ea 0000001F 		.ascii	"\000\000\000\037\377\377\000\000\177\377\360\000\007"
 1206      FFFF0000 
 1206      7FFFF000 
 1206      07
 1207 00f7 00000000 		.ascii	"\000\000\000\000\000\000\037\377\377\000\000\000\000"
 1207      00001FFF 
 1207      FF000000 
 1207      00
 1208 0104 F0000700 		.ascii	"\360\000\007\000\000\000\000\000\000\037\377\377\000"
 1208      00000000 
 1208      001FFFFF 
 1208      00
 1209 0111 00000000 		.ascii	"\000\000\000\000\000\007\000\000\000\000x\000\037\377"
 1209      00070000 
 1209      00007800 
 1209      1FFF
 1210 011f FF000000 		.ascii	"\377\000\000\000\000\000\000\007\000\000\000\000\370"
 1210      00000007 
 1210      00000000 
 1210      F8
 1211 012c 401FFFFF 		.ascii	"@\037\377\377\000\000\000\000\000\000\007\000\000\000"
 1211      00000000 
 1211      00000700 
 1211      0000
 1212 013a 00F8001F 		.ascii	"\000\370\000\037\377\377\000\000\000\000\000\000\007"
 1212      FFFF0000 
 1212      00000000 
 1212      07
 1213 0147 00000002 		.ascii	"\000\000\000\002\002\000\037\340\377\000\000\000\000"
 1213      02001FE0 
 1213      FF000000 
 1213      00
 1214 0154 00000700 		.ascii	"\000\000\007\000\000\000\007\007\000\037\340\377\000"
 1214      00000707 
 1214      001FE0FF 
 1214      00
 1215 0161 00000000 		.ascii	"\000\000\000\000\000\003\000\000\000\007\007\000\037"
 1215      00030000 
 1215      00070700 
 1215      1F
ARM GAS  C:\Users\3kb\AppData\Local\Temp\ccoOmmoe.s 			page 82


 1216 016e C0FF0000 		.ascii	"\300\377\000\000\000\000\000\000\003\000\000\000\007"
 1216      00000000 
 1216      03000000 
 1216      07
 1217 017b 00C01F00 		.ascii	"\000\300\037\000\377\000\000\000\000\000\000\003\000"
 1217      FF000000 
 1217      00000003 
 1217      00
 1218 0188 00000700 		.ascii	"\000\000\007\000\340\037\000\377\000\000\000\000\000"
 1218      E01F00FF 
 1218      00000000 
 1218      00
 1219 0195 00030000 		.ascii	"\000\003\000\000\000\007\000\000<\000\377\000\000\000"
 1219      00070000 
 1219      3C00FF00 
 1219      0000
 1220 01a3 0000F803 		.ascii	"\000\000\370\003\000\000\000\007\000\037\370\000\377"
 1220      00000007 
 1220      001FF800 
 1220      FF
 1221 01b0 00000000 		.ascii	"\000\000\000\000\000\370\003\000\000\000\007\000\037"
 1221      00F80300 
 1221      00000700 
 1221      1F
 1222 01bd F800FF00 		.ascii	"\370\000\377\000\000\000\000\003\006\003\000\000\000"
 1222      00000003 
 1222      06030000 
 1222      00
 1223 01ca 07000000 		.ascii	"\007\000\000\000\000\377\000\000\000\000\007\007\003"
 1223      00FF0000 
 1223      00000707 
 1223      03
 1224 01d7 00000007 		.ascii	"\000\000\000\007\000\000\000\000\377\000\000\000\000"
 1224      00000000 
 1224      FF000000 
 1224      00
 1225 01e4 07070700 		.ascii	"\007\007\007\000\000\000\003\000\000\000\000\377\000"
 1225      00000300 
 1225      000000FF 
 1225      00
 1226 01f1 00000007 		.ascii	"\000\000\000\007\007\377\000\000\000\030\000\000\000"
 1226      07FF0000 
 1226      00180000 
 1226      00
 1227 01fe 001F0000 		.ascii	"\000\037\000\000\000\000\007\007\377\000\000\000\030"
 1227      00000707 
 1227      FF000000 
 1227      18
 1228 020b 00000000 		.ascii	"\000\000\000\000\037\000\000\000\000\000\300\007\000"
 1228      1F000000 
 1228      0000C007 
 1228      00
 1229 0218 00001800 		.ascii	"\000\000\030\000\300\000\030\037\000\000\000\000\000"
 1229      C000181F 
 1229      00000000 
 1229      00
 1230 0225 E0070200 		.ascii	"\340\007\002\000\000\030\000\340\000\030\037\000\000"
ARM GAS  C:\Users\3kb\AppData\Local\Temp\ccoOmmoe.s 			page 83


 1230      001800E0 
 1230      00181F00 
 1230      00
 1231 0232 000000E0 		.ascii	"\000\000\000\340\007\000\000\000\030\000\340\000\030"
 1231      07000000 
 1231      1800E000 
 1231      18
 1232 023f 1F000000 		.ascii	"\037\000\000\000\000\000\037\007\000\000\000\030\007"
 1232      00001F07 
 1232      00000018 
 1232      07
 1233 024c E018F81F 		.ascii	"\340\030\370\037\000\000\000\000\000\037\007\000\000"
 1233      00000000 
 1233      001F0700 
 1233      00
 1234 0259 001807E0 		.ascii	"\000\030\007\3408\374\037\000\000\000\000\000\037\007"
 1234      38FC1F00 
 1234      00000000 
 1234      1F07
 1235 0267 00000018 		.ascii	"\000\000\000\030\007\340\030\370\037\000\000\000\000"
 1235      07E018F8 
 1235      1F000000 
 1235      00
 1236 0274 0000FF00 		.ascii	"\000\000\377\000\000\000\030\000\000\000\000\037\000"
 1236      00001800 
 1236      0000001F 
 1236      00
 1237 0281 00000000 		.ascii	"\000\000\000\000\000\377\000\000@\030\000\000\000\000"
 1237      00FF0000 
 1237      40180000 
 1237      0000
 1238 028f 1F000000 		.ascii	"\037\000\000\000\000\000\000\377\000\000\000\030\000"
 1238      000000FF 
 1238      00000018 
 1238      00
 1239 029c C040C01F 		.ascii	"\300@\300\037\000\000\000\000\000\000\007\000\000\000"
 1239      00000000 
 1239      00000700 
 1239      0000
 1240 02aa 1800E0E0 		.ascii	"\030\000\340\340\340\037\000\000\000\000\000\000\007"
 1240      E01F0000 
 1240      00000000 
 1240      07
 1241 02b7 00000018 		.ascii	"\000\000\000\030\000\340\340\340\037\000\000\000\000"
 1241      00E0E0E0 
 1241      1F000000 
 1241      00
 1242 02c4 00000700 		.ascii	"\000\000\007\000\000\000\007\000\377\377\340\377\000"
 1242      00000700 
 1242      FFFFE0FF 
 1242      00
 1243 02d1 00000000 		.ascii	"\000\000\000\000\000\007\000\000\000\007\000\377\377"
 1243      00070000 
 1243      000700FF 
 1243      FF
 1244 02de E0FF0000 		.ascii	"\340\377\000\000\000\000\000\000\007\000\000\000\002"
 1244      00000000 
ARM GAS  C:\Users\3kb\AppData\Local\Temp\ccoOmmoe.s 			page 84


 1244      07000000 
 1244      02
 1245 02eb 00FFFFC0 		.ascii	"\000\377\377\300\377\000\000\000\000\000\000\007\300"
 1245      FF000000 
 1245      00000007 
 1245      C0
 1246 02f8 000000E0 		.ascii	"\000\000\000\340\000\000\007\377\000\000\000\000\000"
 1246      000007FF 
 1246      00000000 
 1246      00
 1247 0305 0007C000 		.ascii	"\000\007\300\000\000\000\340\000\000\007\377\000\000"
 1247      0000E000 
 1247      0007FF00 
 1247      00
 1248 0312 00000000 		.ascii	"\000\000\000\000?\300\000\000\000\354\362Q'\377\000"
 1248      3FC00000 
 1248      00ECF251 
 1248      27FF00
 1249 0321 00000000 		.ascii	"\000\000\000\000\0008\037\377\377\377\377\377\377\377"
 1249      00381FFF 
 1249      FFFFFFFF 
 1249      FFFF
 1250 032f FF000000 		.ascii	"\377\000\000\000\000\000\0008\037\377\377\377\377\377"
 1250      00000038 
 1250      1FFFFFFF 
 1250      FFFF
 1251 033d FFFFFF00 		.ascii	"\377\377\377\000\000\000\000\000\0008?\340\377\377\370"
 1251      00000000 
 1251      00383FE0 
 1251      FFFFF8
 1252 034c 1FE0FFFF 		.ascii	"\037\340\377\377@\000\000\000\000\0008\037\340\377\377"
 1252      40000000 
 1252      0000381F 
 1252      E0FFFF
 1253 035b F81FC0FF 		.ascii	"\370\037\300\377\377\037\377\000\000\007\377\274?\340"
 1253      FF1FFF00 
 1253      0007FFBC 
 1253      3FE0
 1254 0369 FFFFF83F 		.ascii	"\377\377\370?\340\377\377\037\377\000\000\007\377\377"
 1254      E0FFFF1F 
 1254      FF000007 
 1254      FFFF
 1255 0377 FFFFFFFF 		.ascii	"\377\377\377\377\377\377\377\377\377\037\377\000\000"
 1255      FFFFFFFF 
 1255      FF1FFF00 
 1255      00
 1256 0384 07FFFFFF 		.ascii	"\007\377\377\377\377\377\377\377\377\377\377\377\037"
 1256      FFFFFFFF 
 1256      FFFFFFFF 
 1256      1F
 1257 0391 FFFFFFFF 		.ascii	"\377\377\377\377\377\377\377\377\377\377\377\377\377"
 1257      FFFFFFFF 
 1257      FFFFFFFF 
 1257      FF
 1258 039e FFFFFFFF 		.ascii	"\377\377\377\377\377\377\377\377\377\377\377\377\377"
 1258      FFFFFFFF 
 1258      FFFFFFFF 
ARM GAS  C:\Users\3kb\AppData\Local\Temp\ccoOmmoe.s 			page 85


 1258      FF
 1259 03ab FFFFFFFF 		.ascii	"\377\377\377\377\377\377\377\377\377\377\377\377\377"
 1259      FFFFFFFF 
 1259      FFFFFFFF 
 1259      FF
 1260 03b8 FFFFFFFF 		.ascii	"\377\377\377\377\377\377\377\377\377\377\377\377\377"
 1260      FFFFFFFF 
 1260      FFFFFFFF 
 1260      FF
 1261 03c5 FFFFFFFF 		.ascii	"\377\377\377\377\377\377\377\377\377\377\377\377\377"
 1261      FFFFFFFF 
 1261      FFFFFFFF 
 1261      FF
 1262 03d2 FFFFFFFF 		.ascii	"\377\377\377\377\377\377\377\377\377\377\377\377\377"
 1262      FFFFFFFF 
 1262      FFFFFFFF 
 1262      FF
 1263 03df FFFFFFFF 		.ascii	"\377\377\377\377\377\377\377\377\377\377\377\377\377"
 1263      FFFFFFFF 
 1263      FFFFFFFF 
 1263      FF
 1264 03ec FFFFFFFF 		.ascii	"\377\377\377\377\377\377\377\377\377\377\377\377\377"
 1264      FFFFFFFF 
 1264      FFFFFFFF 
 1264      FF
 1265 03f9 FFFFFFFF 		.ascii	"\377\377\377\377\377\377\377"
 1265      FFFFFF
 1266              		.global	nyan_cat_04
 1267              		.section	.rodata.nyan_cat_04,"a"
 1268              		.align	2
 1271              	nyan_cat_04:
 1272 0000 FFFFFFFF 		.ascii	"\377\377\377\377\377\377\377\377\377\377\377\377\377"
 1272      FFFFFFFF 
 1272      FFFFFFFF 
 1272      FF
 1273 000d FFFFFFFF 		.ascii	"\377\377\377\377\377\377\377\377\377\377\377\377\377"
 1273      FFFFFFFF 
 1273      FFFFFFFF 
 1273      FF
 1274 001a FFFFFFFF 		.ascii	"\377\377\377\377\377\377\377\377\377\377\377\377\377"
 1274      FFFFFFFF 
 1274      FFFFFFFF 
 1274      FF
 1275 0027 FFFFFFFF 		.ascii	"\377\377\377\377\377\377\377\377\377\377\377\377\377"
 1275      FFFFFFFF 
 1275      FFFFFFFF 
 1275      FF
 1276 0034 FFFFFFFF 		.ascii	"\377\377\377\377\377\377\377\377\377\377\377\377\377"
 1276      FFFFFFFF 
 1276      FFFFFFFF 
 1276      FF
 1277 0041 FFFFFFFF 		.ascii	"\377\377\377\377\377\377\377\377\377\377\377\377\377"
 1277      FFFFFFFF 
 1277      FFFFFFFF 
 1277      FF
 1278 004e FFFFFFFF 		.ascii	"\377\377\377\377\377\377\377\377\377\377\377\377\377"
 1278      FFFFFFFF 
ARM GAS  C:\Users\3kb\AppData\Local\Temp\ccoOmmoe.s 			page 86


 1278      FFFFFFFF 
 1278      FF
 1279 005b FFFFFFFF 		.ascii	"\377\377\377\377\377\177\377\377\377\377\377\377\340"
 1279      FF7FFFFF 
 1279      FFFFFFFF 
 1279      E0
 1280 0068 00000000 		.ascii	"\000\000\000\000\000\377\377\377\000\000\377\377\370"
 1280      00FFFFFF 
 1280      0000FFFF 
 1280      F8
 1281 0075 0000C000 		.ascii	"\000\000\300\000\000\000\000\000\377\377\377\177\374"
 1281      00000000 
 1281      FFFFFF7F 
 1281      FC
 1282 0082 FFFFFBF7 		.ascii	"\377\377\373\367\361\300\000\000\000\000\000\377\377"
 1282      F1C00000 
 1282      000000FF 
 1282      FF
 1283 008f FF7FFE00 		.ascii	"\377\177\376\000\000\003\377\363\000\000\000\000\000"
 1283      0003FFF3 
 1283      00000000 
 1283      00
 1284 009c 001FFFFF 		.ascii	"\000\037\377\377\177\377\000\000\003\377\367\000\000"
 1284      7FFF0000 
 1284      03FFF700 
 1284      00
 1285 00a9 00000000 		.ascii	"\000\000\000\000\037\377\377\177\377\377\377\373\377"
 1285      1FFFFF7F 
 1285      FFFFFFFB 
 1285      FF
 1286 00b6 F7000000 		.ascii	"\367\000\000\000\000\000\000\037\377\377\177\377\377"
 1286      0000001F 
 1286      FFFF7FFF 
 1286      FF
 1287 00c3 FFFFFFF7 		.ascii	"\377\377\377\367\000\000\000\000\000\000\037\377\377"
 1287      00000000 
 1287      00001FFF 
 1287      FF
 1288 00d0 7FFFFFFF 		.ascii	"\177\377\377\377\377\377\367\000\000\002\002\000\000"
 1288      FFFFF700 
 1288      00020200 
 1288      00
 1289 00dd 1FFFFF00 		.ascii	"\037\377\377\000\000\377\377\370\000\007\000\000\000"
 1289      00FFFFF8 
 1289      00070000 
 1289      00
 1290 00ea 0000001F 		.ascii	"\000\000\000\037\377\377\000\000\177\377\360\000\007"
 1290      FFFF0000 
 1290      7FFFF000 
 1290      07
 1291 00f7 00000000 		.ascii	"\000\000\000\000\000\000\037\377\377\000\000\000\000"
 1291      00001FFF 
 1291      FF000000 
 1291      00
 1292 0104 10000700 		.ascii	"\020\000\007\000\000\000\000\000\000\037\377\377\000"
 1292      00000000 
 1292      001FFFFF 
ARM GAS  C:\Users\3kb\AppData\Local\Temp\ccoOmmoe.s 			page 87


 1292      00
 1293 0111 00000000 		.ascii	"\000\000\000\000\000\007\000\000\000\000x\000\037\377"
 1293      00070000 
 1293      00007800 
 1293      1FFF
 1294 011f FF000000 		.ascii	"\377\000\000\000\000\000\000\007\000\000\000\000\370"
 1294      00000007 
 1294      00000000 
 1294      F8
 1295 012c 401FFFFF 		.ascii	"@\037\377\377\000\000\000\000\000\000\007\000\000\000"
 1295      00000000 
 1295      00000700 
 1295      0000
 1296 013a 00F8001F 		.ascii	"\000\370\000\037\377\377\000\000\000\000\000\000\007"
 1296      FFFF0000 
 1296      00000000 
 1296      07
 1297 0147 00000002 		.ascii	"\000\000\000\002\002\000\037\340\377\000\000\000\000"
 1297      02001FE0 
 1297      FF000000 
 1297      00
 1298 0154 00000700 		.ascii	"\000\000\007\000\000\000\007\007\000\037\340\377\000"
 1298      00000707 
 1298      001FE0FF 
 1298      00
 1299 0161 00000000 		.ascii	"\000\000\000\000\000\007\000\000\000\007\006\000\037"
 1299      00070000 
 1299      00070600 
 1299      1F
 1300 016e C0FF0000 		.ascii	"\300\377\000\000\000\000\000\000\003\000\000\000\007"
 1300      00000000 
 1300      03000000 
 1300      07
 1301 017b 00C01F00 		.ascii	"\000\300\037\000\377\000\000\000\000\000\000\003\000"
 1301      FF000000 
 1301      00000003 
 1301      00
 1302 0188 00000700 		.ascii	"\000\000\007\000\340\037\000\377\000\000\000\000\000"
 1302      E01F00FF 
 1302      00000000 
 1302      00
 1303 0195 00030000 		.ascii	"\000\003\000\000\000\007\000\000<\000\377\000\000\000"
 1303      00070000 
 1303      3C00FF00 
 1303      0000
 1304 01a3 0000F803 		.ascii	"\000\000\370\003\000\000\000\007\000\037\370\000\377"
 1304      00000007 
 1304      001FF800 
 1304      FF
 1305 01b0 00000000 		.ascii	"\000\000\000\000\000\370\003\000\000\000\007\000\037"
 1305      00F80300 
 1305      00000700 
 1305      1F
 1306 01bd F800FF00 		.ascii	"\370\000\377\000\000\000\000\003\006\003\000\000\000"
 1306      00000003 
 1306      06030000 
 1306      00
ARM GAS  C:\Users\3kb\AppData\Local\Temp\ccoOmmoe.s 			page 88


 1307 01ca 07000000 		.ascii	"\007\000\000\000\000\377\000\000\000\000\007\007\003"
 1307      00FF0000 
 1307      00000707 
 1307      03
 1308 01d7 00000007 		.ascii	"\000\000\000\007\000\000\000\000\377\000\000\000\000"
 1308      00000000 
 1308      FF000000 
 1308      00
 1309 01e4 07070700 		.ascii	"\007\007\007\000\000\000\003\000\000\000\000\377\000"
 1309      00000300 
 1309      000000FF 
 1309      00
 1310 01f1 00000007 		.ascii	"\000\000\000\007\007\377\000\000\000\030\000\000\000"
 1310      07FF0000 
 1310      00180000 
 1310      00
 1311 01fe 001F0000 		.ascii	"\000\037\000\000\000\000\007\007\377\000\000\000\030"
 1311      00000707 
 1311      FF000000 
 1311      18
 1312 020b 00000000 		.ascii	"\000\000\000\000\037\000\000\000\000\000\300\007\000"
 1312      1F000000 
 1312      0000C007 
 1312      00
 1313 0218 00001800 		.ascii	"\000\000\030\000\300\000\030\037\000\000\000\000\000"
 1313      C000181F 
 1313      00000000 
 1313      00
 1314 0225 E0070200 		.ascii	"\340\007\002\000\000\030\000\340\000\030\037\000\000"
 1314      001800E0 
 1314      00181F00 
 1314      00
 1315 0232 000000E0 		.ascii	"\000\000\000\340\007\000\000\000\030\000\340\000\030"
 1315      07000000 
 1315      1800E000 
 1315      18
 1316 023f 1F000000 		.ascii	"\037\000\000\000\000\000\037\007\000\000\000\030\007"
 1316      00001F07 
 1316      00000018 
 1316      07
 1317 024c E018F81F 		.ascii	"\340\030\370\037\000\000\000\000\000\037\007\000\000"
 1317      00000000 
 1317      001F0700 
 1317      00
 1318 0259 001807E0 		.ascii	"\000\030\007\3408\370\037\000\000\000\000\000\037\007"
 1318      38F81F00 
 1318      00000000 
 1318      1F07
 1319 0267 00000018 		.ascii	"\000\000\000\030\007\340\030\370\037\000\000\000\000"
 1319      07E018F8 
 1319      1F000000 
 1319      00
 1320 0274 0000FF00 		.ascii	"\000\000\377\000\000\000\030\000\000\000\000\037\000"
 1320      00001800 
 1320      0000001F 
 1320      00
 1321 0281 00000000 		.ascii	"\000\000\000\000\000\377\000\000@\030\000\000\000\000"
ARM GAS  C:\Users\3kb\AppData\Local\Temp\ccoOmmoe.s 			page 89


 1321      00FF0000 
 1321      40180000 
 1321      0000
 1322 028f 1F000000 		.ascii	"\037\000\000\000\000\000\000\377\000\000\000\030\000"
 1322      000000FF 
 1322      00000018 
 1322      00
 1323 029c 4040401F 		.ascii	"@@@\037\000\000\000\000\000\000\007\000\000\000\030"
 1323      00000000 
 1323      00000700 
 1323      000018
 1324 02ab 00E0C0E0 		.ascii	"\000\340\300\340\037\000\000\000\000\000\000\007\000"
 1324      1F000000 
 1324      00000007 
 1324      00
 1325 02b8 00001800 		.ascii	"\000\000\030\000\340\340\340\037\000\000\000\000\000"
 1325      E0E0E01F 
 1325      00000000 
 1325      00
 1326 02c5 00070000 		.ascii	"\000\007\000\000\000\007\000\377\377\340\377\000\000"
 1326      000700FF 
 1326      FFE0FF00 
 1326      00
 1327 02d2 00000000 		.ascii	"\000\000\000\000\007\000\000\000\007\000\377\377\340"
 1327      07000000 
 1327      0700FFFF 
 1327      E0
 1328 02df FF000000 		.ascii	"\377\000\000\000\000\000\000\007\000\000\000\002\000"
 1328      00000007 
 1328      00000002 
 1328      00
 1329 02ec FFFFC0FF 		.ascii	"\377\377\300\377\000\020\000\000\000\000\007\300\000"
 1329      00100000 
 1329      000007C0 
 1329      00
 1330 02f9 0000E000 		.ascii	"\000\000\340\000\000\007\377\000\000\000\000\000\000"
 1330      0007FF00 
 1330      00000000 
 1330      00
 1331 0306 07C00000 		.ascii	"\007\300\000\000\000\340\000\000\007\377\000\000\000"
 1331      00E00000 
 1331      07FF0000 
 1331      00
 1332 0313 0000003F 		.ascii	"\000\000\000?\300\000\000\000\345\1775\267\377\000\000"
 1332      C0000000 
 1332      E57F35B7 
 1332      FF0000
 1333 0322 00000000 		.ascii	"\000\000\000\0008\037\377\377\377\377\377\377\377\377"
 1333      381FFFFF 
 1333      FFFFFFFF 
 1333      FFFF
 1334 0330 00000000 		.ascii	"\000\000\000\000\000\0008\037\377\377\377\377\377\377"
 1334      0000381F 
 1334      FFFFFFFF 
 1334      FFFF
 1335 033e FFFF0000 		.ascii	"\377\377\000\000\000\000\000\0008\037\340\377\377\370"
 1335      00000000 
ARM GAS  C:\Users\3kb\AppData\Local\Temp\ccoOmmoe.s 			page 90


 1335      381FE0FF 
 1335      FFF8
 1336 034c 1FE0FFFF 		.ascii	"\037\340\377\377@\000\000\000\000\0008\037\340\377\377"
 1336      40000000 
 1336      0000381F 
 1336      E0FFFF
 1337 035b F81FC0FF 		.ascii	"\370\037\300\377\377\037\377\000\000\007\377\374?\340"
 1337      FF1FFF00 
 1337      0007FFFC 
 1337      3FE0
 1338 0369 FFFFF83F 		.ascii	"\377\377\370?\340\377\377\037\377\000\000\007\377\377"
 1338      E0FFFF1F 
 1338      FF000007 
 1338      FFFF
 1339 0377 FFFFFFFF 		.ascii	"\377\377\377\377\377\377\377\377\377\037\377\000\000"
 1339      FFFFFFFF 
 1339      FF1FFF00 
 1339      00
 1340 0384 07FFFFFF 		.ascii	"\007\377\377\377\377\377\377\377\377\377\377\377\037"
 1340      FFFFFFFF 
 1340      FFFFFFFF 
 1340      1F
 1341 0391 FFFFFFFF 		.ascii	"\377\377\377\377\377\377\377\377\377\377\377\377\377"
 1341      FFFFFFFF 
 1341      FFFFFFFF 
 1341      FF
 1342 039e FFFFFFFF 		.ascii	"\377\377\377\377\377\377\377\377\377\377\377\377\377"
 1342      FFFFFFFF 
 1342      FFFFFFFF 
 1342      FF
 1343 03ab FFFFFFFF 		.ascii	"\377\377\377\377\377\377\377\377\377\377\377\377\377"
 1343      FFFFFFFF 
 1343      FFFFFFFF 
 1343      FF
 1344 03b8 FFFFFFFF 		.ascii	"\377\377\377\377\377\377\377\377\377\377\377\377\377"
 1344      FFFFFFFF 
 1344      FFFFFFFF 
 1344      FF
 1345 03c5 FFFFFFFF 		.ascii	"\377\377\377\377\377\377\377\377\377\377\377\377\377"
 1345      FFFFFFFF 
 1345      FFFFFFFF 
 1345      FF
 1346 03d2 FFFFFFFF 		.ascii	"\377\377\377\377\377\377\377\377\377\377\377\377\377"
 1346      FFFFFFFF 
 1346      FFFFFFFF 
 1346      FF
 1347 03df FFFFFFFF 		.ascii	"\377\377\377\377\377\377\377\377\377\377\377\377\377"
 1347      FFFFFFFF 
 1347      FFFFFFFF 
 1347      FF
 1348 03ec FFFFFFFF 		.ascii	"\377\377\377\377\377\377\377\377\377\377\377\377\377"
 1348      FFFFFFFF 
 1348      FFFFFFFF 
 1348      FF
 1349 03f9 FFFFFFFF 		.ascii	"\377\377\377\377\377\377\377"
 1349      FFFFFF
 1350              		.global	nyan_cat_03
ARM GAS  C:\Users\3kb\AppData\Local\Temp\ccoOmmoe.s 			page 91


 1351              		.section	.rodata.nyan_cat_03,"a"
 1352              		.align	2
 1355              	nyan_cat_03:
 1356 0000 FFFFFFFF 		.ascii	"\377\377\377\377\377\377\377\377\377\377\377\377\377"
 1356      FFFFFFFF 
 1356      FFFFFFFF 
 1356      FF
 1357 000d FFFFFFFF 		.ascii	"\377\377\377\377\377\377\377\377\377\377\377\377\377"
 1357      FFFFFFFF 
 1357      FFFFFFFF 
 1357      FF
 1358 001a FFFFFFFF 		.ascii	"\377\377\377\377\377\377\377\377\377\377\377\377\377"
 1358      FFFFFFFF 
 1358      FFFFFFFF 
 1358      FF
 1359 0027 FFFFFFFF 		.ascii	"\377\377\377\377\377\377\377\377\377\377\377\377\377"
 1359      FFFFFFFF 
 1359      FFFFFFFF 
 1359      FF
 1360 0034 FFFFFFFF 		.ascii	"\377\377\377\377\377\377\377\377\377\377\377\377\377"
 1360      FFFFFFFF 
 1360      FFFFFFFF 
 1360      FF
 1361 0041 FFFFFFFF 		.ascii	"\377\377\377\377\377\377\377\377\377\377\377\377\377"
 1361      FFFFFFFF 
 1361      FFFFFFFF 
 1361      FF
 1362 004e FFFFFFFF 		.ascii	"\377\377\377\377\377\377\377\377\377\377\377\377\377"
 1362      FFFFFFFF 
 1362      FFFFFFFF 
 1362      FF
 1363 005b FFFFFFFF 		.ascii	"\377\377\377\377\377\177\377\377\377\377\377\377\340"
 1363      FF7FFFFF 
 1363      FFFFFFFF 
 1363      E0
 1364 0068 00000000 		.ascii	"\000\000\000\000\000\377\377\377\000\000\377\377\370"
 1364      00FFFFFF 
 1364      0000FFFF 
 1364      F8
 1365 0075 0000C000 		.ascii	"\000\000\300\000\000\000\000\000\377\377\377\177\374"
 1365      00000000 
 1365      FFFFFF7F 
 1365      FC
 1366 0082 FFFFFBFF 		.ascii	"\377\377\373\377\361\300\000\000\000\000\000\377\377"
 1366      F1C00000 
 1366      000000FF 
 1366      FF
 1367 008f FF7FFE00 		.ascii	"\377\177\376\000\000\003\377\363\000\000\000\000\000"
 1367      0003FFF3 
 1367      00000000 
 1367      00
 1368 009c 001FFFFF 		.ascii	"\000\037\377\377\177\376\000\000\003\377\367\000\000"
 1368      7FFE0000 
 1368      03FFF700 
 1368      00
 1369 00a9 00000000 		.ascii	"\000\000\000\000\037\377\377\177\377\377\377\377\377"
 1369      1FFFFF7F 
ARM GAS  C:\Users\3kb\AppData\Local\Temp\ccoOmmoe.s 			page 92


 1369      FFFFFFFF 
 1369      FF
 1370 00b6 F7000000 		.ascii	"\367\000\000\000\000\000\000\037\377\377\177\377\377"
 1370      0000001F 
 1370      FFFF7FFF 
 1370      FF
 1371 00c3 FFFFFFF7 		.ascii	"\377\377\377\367\000\000\000\000\000\000\037\377\377"
 1371      00000000 
 1371      00001FFF 
 1371      FF
 1372 00d0 7FFFFFFF 		.ascii	"\177\377\377\377\377\377\367\000\000\002\002\000\000"
 1372      FFFFF700 
 1372      00020200 
 1372      00
 1373 00dd 1FFFFF00 		.ascii	"\037\377\377\000\000\377\377\370\000\007\000\000\000"
 1373      00FFFFF8 
 1373      00070000 
 1373      00
 1374 00ea 0000001F 		.ascii	"\000\000\000\037\377\377\000\000\177\377\360\000\007"
 1374      FFFF0000 
 1374      7FFFF000 
 1374      07
 1375 00f7 00000000 		.ascii	"\000\000\000\000\000\000\037\377\377\000\000\000\000"
 1375      00001FFF 
 1375      FF000000 
 1375      00
 1376 0104 30000700 		.ascii	"0\000\007\000\000\000\000\000\000\037\377\377\000\000"
 1376      00000000 
 1376      001FFFFF 
 1376      0000
 1377 0112 00000000 		.ascii	"\000\000\000\000\007\000\000\000\003\300\000\037\377"
 1377      07000000 
 1377      03C0001F 
 1377      FF
 1378 011f FF000000 		.ascii	"\377\000\000\000\000\000\000\007\000\000\000\007\300"
 1378      00000007 
 1378      00000007 
 1378      C0
 1379 012c 401FFFFF 		.ascii	"@\037\377\377\000\000\000\000\000\000\007\000\000\000"
 1379      00000000 
 1379      00000700 
 1379      0000
 1380 013a 03C0001F 		.ascii	"\003\300\000\037\377\377\000\000\000\000\000\000\007"
 1380      FFFF0000 
 1380      00000000 
 1380      07
 1381 0147 00000018 		.ascii	"\000\000\000\030\030\000\037\007\377\000\000\000\000"
 1381      18001F07 
 1381      FF000000 
 1381      00
 1382 0154 00000700 		.ascii	"\000\000\007\000\000\000\030\030\000\037\007\377\000"
 1382      00001818 
 1382      001F07FF 
 1382      00
 1383 0161 00000000 		.ascii	"\000\000\000\000\000\007\000\000\000\030\030\000\037"
 1383      00070000 
 1383      00181800 
ARM GAS  C:\Users\3kb\AppData\Local\Temp\ccoOmmoe.s 			page 93


 1383      1F
 1384 016e 07FF0000 		.ascii	"\007\377\000\000\000\000\007\376\003\000\000\000\030"
 1384      000007FE 
 1384      03000000 
 1384      18
 1385 017b 06001807 		.ascii	"\006\000\030\007\377\000\000\000\000\007\377\003\000"
 1385      FF000000 
 1385      0007FF03 
 1385      00
 1386 0188 00001807 		.ascii	"\000\000\030\007\000\030\007\377\000\000\000\000\007"
 1386      001807FF 
 1386      00000000 
 1386      07
 1387 0195 87030000 		.ascii	"\207\003\000\000\000\030\000\000\000\007\377\000\000"
 1387      00180000 
 1387      0007FF00 
 1387      00
 1388 01a2 00000707 		.ascii	"\000\000\007\007\303\000\000\000\030\000\377\340\007"
 1388      C3000000 
 1388      1800FFE0 
 1388      07
 1389 01af FF000000 		.ascii	"\377\000\000\000\000\007\007\307\000\000\000\030\000"
 1389      000707C7 
 1389      00000018 
 1389      00
 1390 01bc FFC007FF 		.ascii	"\377\300\007\377\000\000\000\000\007\340\377\000\000"
 1390      00000000 
 1390      07E0FF00 
 1390      00
 1391 01c9 00180000 		.ascii	"\000\030\000\000\000\007\377\000\000\000\000\007\340"
 1391      0007FF00 
 1391      00000007 
 1391      E0
 1392 01d6 FF000000 		.ascii	"\377\000\000\000\030\000\000\000\007\377\000\000\000"
 1392      18000000 
 1392      07FF0000 
 1392      00
 1393 01e3 0003E0FF 		.ascii	"\000\003\340\377\000\000\000\030\000\000\000\003\377"
 1393      00000018 
 1393      00000003 
 1393      FF
 1394 01f0 00000000 		.ascii	"\000\000\000\000\000\370?\000\000\000\340\000\000\000"
 1394      00F83F00 
 1394      0000E000 
 1394      0000
 1395 01fe 00FF0000 		.ascii	"\000\377\000\000\000\000\000\370?\000\000\000\340\000"
 1395      000000F8 
 1395      3F000000 
 1395      E000
 1396 020c 000000FF 		.ascii	"\000\000\000\377\000\000\000\000\000\036\007\000\000"
 1396      00000000 
 1396      001E0700 
 1396      00
 1397 0219 00E00200 		.ascii	"\000\340\002\000\000@\377\000\000\000\000\000\037\007"
 1397      0040FF00 
 1397      00000000 
 1397      1F07
ARM GAS  C:\Users\3kb\AppData\Local\Temp\ccoOmmoe.s 			page 94


 1398 0227 020000E0 		.ascii	"\002\000\000\340\003\000\000\340\377\000\000\000\000"
 1398      030000E0 
 1398      FF000000 
 1398      00
 1399 0234 001F0700 		.ascii	"\000\037\007\000\000\000\340\003\000\000\340\377\000"
 1399      0000E003 
 1399      0000E0FF 
 1399      00
 1400 0241 00000000 		.ascii	"\000\000\000\000\007\377\000\000\000\340\037\000\307"
 1400      07FF0000 
 1400      00E01F00 
 1400      C7
 1401 024e E0FF0000 		.ascii	"\340\377\000\000\000\000\000\007\377\000\000\000\340"
 1401      00000007 
 1401      FF000000 
 1401      E0
 1402 025b 1F00E7E0 		.ascii	"\037\000\347\340\377\000\000\000\000\000\003\377\000"
 1402      FF000000 
 1402      000003FF 
 1402      00
 1403 0268 0000E01F 		.ascii	"\000\000\340\037\000\303\300\377\000\000\000\000\000"
 1403      00C3C0FF 
 1403      00000000 
 1403      00
 1404 0275 003F0000 		.ascii	"\000?\000\000\000\340\000\000\000\000\377\000\000\000"
 1404      00E00000 
 1404      0000FF00 
 1404      0000
 1405 0283 0000003F 		.ascii	"\000\000\000?\000\000@\340\000\000\000\000\377\000\000"
 1405      000040E0 
 1405      00000000 
 1405      FF0000
 1406 0292 00000000 		.ascii	"\000\000\000\000\037\000\000\000\340\002\002\002\000"
 1406      1F000000 
 1406      E0020202 
 1406      00
 1407 029f FF000000 		.ascii	"\377\000\000\000\000\000\000\007\000\000\000\340\007"
 1407      00000007 
 1407      000000E0 
 1407      07
 1408 02ac 070700FF 		.ascii	"\007\007\000\377\000\000\000\000\000\000\007\000\000"
 1408      00000000 
 1408      00000700 
 1408      00
 1409 02b9 00600707 		.ascii	"\000`\007\007\007\000\377\000\000\000\000\000\000\007"
 1409      0700FF00 
 1409      00000000 
 1409      0007
 1410 02c7 00000018 		.ascii	"\000\000\000\030\007\377\377\003\377\000\000\000\000"
 1410      07FFFF03 
 1410      FF000000 
 1410      00
 1411 02d4 00000700 		.ascii	"\000\000\007\000\000\000\030\007\377\377\007\377\000"
 1411      00001807 
 1411      FFFF07FF 
 1411      00
 1412 02e1 00000000 		.ascii	"\000\000\000\000\0007\000\000\000\030\007\377\377\007"
ARM GAS  C:\Users\3kb\AppData\Local\Temp\ccoOmmoe.s 			page 95


 1412      00370000 
 1412      001807FF 
 1412      FF07
 1413 02ef FF000200 		.ascii	"\377\000\002\000\000\000\000?\300\000\000\007\000\000"
 1413      0000003F 
 1413      C0000007 
 1413      0000
 1414 02fd 003FFF00 		.ascii	"\000?\377\000\002\000\000\000\000?\300\000\000\007\000"
 1414      02000000 
 1414      003FC000 
 1414      000700
 1415 030c 00003FFF 		.ascii	"\000\000?\377\000\000\000\000\000\001\377\300\000\000"
 1415      00000000 
 1415      0001FFC0 
 1415      0000
 1416 031a 0723F6DF 		.ascii	"\007#\366\337\277\377\000\000\000\000\000\001\300?\377"
 1416      BFFF0000 
 1416      00000001 
 1416      C03FFF
 1417 0329 FFFFFFFF 		.ascii	"\377\377\377\377\377\377\377\000\000@\000\000\001\300"
 1417      FFFFFF00 
 1417      00400000 
 1417      01C0
 1418 0337 3FFFFFFF 		.ascii	"?\377\377\377\377\377\377\377\377\000\000\000\000\000"
 1418      FFFFFFFF 
 1418      FF000000 
 1418      0000
 1419 0345 01C0FFE0 		.ascii	"\001\300\377\340\377\377\340\377\007\377\377\000\300"
 1419      FFFFE0FF 
 1419      07FFFF00 
 1419      C0
 1420 0352 00C00001 		.ascii	"\000\300\000\001\300\377\340\377\377\340\377\007\377"
 1420      C0FFE0FF 
 1420      FFE0FF07 
 1420      FF
 1421 035f FF7F1F00 		.ascii	"\377\177\037\000\000\007\375\340\377\340\377\377\341"
 1421      0007FDE0 
 1421      FFE0FFFF 
 1421      E1
 1422 036c FF07FFFF 		.ascii	"\377\007\377\377\376\037\200\000\007\377\377\377\377"
 1422      FE1F8000 
 1422      07FFFFFF 
 1422      FF
 1423 0379 FFFFFFFF 		.ascii	"\377\377\377\377\377\377\377\376\037\000\000\007\377"
 1423      FFFFFFFE 
 1423      1F000007 
 1423      FF
 1424 0386 FFFFFFFF 		.ascii	"\377\377\377\377\377\377\377\377\377\377\377\037\377"
 1424      FFFFFFFF 
 1424      FFFFFF1F 
 1424      FF
 1425 0393 1FFFFFFF 		.ascii	"\037\377\377\377\377\377\377\377\377\377\377\377\377"
 1425      FFFFFFFF 
 1425      FFFFFFFF 
 1425      FF
 1426 03a0 FFFFFFFF 		.ascii	"\377\377\377\377\377\377\377\377\377\377\377\377\377"
 1426      FFFFFFFF 
ARM GAS  C:\Users\3kb\AppData\Local\Temp\ccoOmmoe.s 			page 96


 1426      FFFFFFFF 
 1426      FF
 1427 03ad FFFFFFFF 		.ascii	"\377\377\377\377\377\377\377\377\377\377\377\377\377"
 1427      FFFFFFFF 
 1427      FFFFFFFF 
 1427      FF
 1428 03ba FFFFFFFF 		.ascii	"\377\377\377\377\377\377\377\377\377\377\377\377\377"
 1428      FFFFFFFF 
 1428      FFFFFFFF 
 1428      FF
 1429 03c7 FFFFFFFF 		.ascii	"\377\377\377\377\377\377\377\377\377\377\377\377\377"
 1429      FFFFFFFF 
 1429      FFFFFFFF 
 1429      FF
 1430 03d4 FFFFFFFF 		.ascii	"\377\377\377\377\377\377\377\377\377\377\377\377\377"
 1430      FFFFFFFF 
 1430      FFFFFFFF 
 1430      FF
 1431 03e1 FF3FFFFF 		.ascii	"\377?\377\377\377\377\377\377\377\377\377\377\377\377"
 1431      FFFFFFFF 
 1431      FFFFFFFF 
 1431      FFFF
 1432 03ef FFFFFF1F 		.ascii	"\377\377\377\037\377\377\377\377\377\377\377\377\377"
 1432      FFFFFFFF 
 1432      FFFFFFFF 
 1432      FF
 1433 03fc FFFFFFFF 		.ascii	"\377\377\377\377"
 1434              		.global	nyan_cat_02
 1435              		.section	.rodata.nyan_cat_02,"a"
 1436              		.align	2
 1439              	nyan_cat_02:
 1440 0000 FFFFFFFF 		.ascii	"\377\377\377\377\377\377\377\377\377\377\377\377\377"
 1440      FFFFFFFF 
 1440      FFFFFFFF 
 1440      FF
 1441 000d FFFFFFFF 		.ascii	"\377\377\377\377\377\377\377\377\377\377\377\377\377"
 1441      FFFFFFFF 
 1441      FFFFFFFF 
 1441      FF
 1442 001a FFFFFFFF 		.ascii	"\377\377\377\377\377\377\377\377\377\377\377\377\377"
 1442      FFFFFFFF 
 1442      FFFFFFFF 
 1442      FF
 1443 0027 FFFFFFFF 		.ascii	"\377\377\377\377\377\377\377\377\377\377\377\377\377"
 1443      FFFFFFFF 
 1443      FFFFFFFF 
 1443      FF
 1444 0034 FFFFFFFF 		.ascii	"\377\377\377\377\377\377\377\377\377\377\377\377\377"
 1444      FFFFFFFF 
 1444      FFFFFFFF 
 1444      FF
 1445 0041 FFFFFFFF 		.ascii	"\377\377\377\377\377\377\377\377\377\377\377\377\377"
 1445      FFFFFFFF 
 1445      FFFFFFFF 
 1445      FF
 1446 004e FFFFFFFF 		.ascii	"\377\377\377\377\377\377\377\377\377\377\377\377\377"
 1446      FFFFFFFF 
ARM GAS  C:\Users\3kb\AppData\Local\Temp\ccoOmmoe.s 			page 97


 1446      FFFFFFFF 
 1446      FF
 1447 005b FFFFFFFF 		.ascii	"\377\377\377\377\377\177\377\377\377\377\377\377\340"
 1447      FF7FFFFF 
 1447      FFFFFFFF 
 1447      E0
 1448 0068 00000000 		.ascii	"\000\000\000\000\000\377\377\377\000\000\377\377\370"
 1448      00FFFFFF 
 1448      0000FFFF 
 1448      F8
 1449 0075 0000C000 		.ascii	"\000\000\300\000\000\000\000\000\377\377\377\177\374"
 1449      00000000 
 1449      FFFFFF7F 
 1449      FC
 1450 0082 FFFFF9FF 		.ascii	"\377\377\371\377\350\300\000\000\000\000\000\377\377"
 1450      E8C00000 
 1450      000000FF 
 1450      FF
 1451 008f FF7FFE00 		.ascii	"\377\177\376\000\000\003\377\343\000\000\000\000\000"
 1451      0003FFE3 
 1451      00000000 
 1451      00
 1452 009c 001FFFFF 		.ascii	"\000\037\377\377\177\376\000\000\001\377\367\000\000"
 1452      7FFE0000 
 1452      01FFF700 
 1452      00
 1453 00a9 00000000 		.ascii	"\000\000\000\000\037\377\377\177\377\377\377\377\377"
 1453      1FFFFF7F 
 1453      FFFFFFFF 
 1453      FF
 1454 00b6 F7000000 		.ascii	"\367\000\000\000\000\000\000\037\377\377\177\377\377"
 1454      0000001F 
 1454      FFFF7FFF 
 1454      FF
 1455 00c3 FFFFFFF7 		.ascii	"\377\377\377\367\000\000\000\000\000\000\037\377\377"
 1455      00000000 
 1455      00001FFF 
 1455      FF
 1456 00d0 7FFFFFFF 		.ascii	"\177\377\377\377\377\377\367\000\000\002\002\000\000"
 1456      FFFFF700 
 1456      00020200 
 1456      00
 1457 00dd 1FFFFF00 		.ascii	"\037\377\377\000\000\377\377\370\000\007\000\000\000"
 1457      00FFFFF8 
 1457      00070000 
 1457      00
 1458 00ea 0000001F 		.ascii	"\000\000\000\037\377\377\000\000\177\377\360\000\007"
 1458      FFFF0000 
 1458      7FFFF000 
 1458      07
 1459 00f7 00000000 		.ascii	"\000\000\000\000\000\000\037\377\377\000\000 \000\020"
 1459      00001FFF 
 1459      FF000020 
 1459      0010
 1460 0105 00070000 		.ascii	"\000\007\000\000\000\000\000\000\037\377\377\000\000"
 1460      00000000 
 1460      1FFFFF00 
ARM GAS  C:\Users\3kb\AppData\Local\Temp\ccoOmmoe.s 			page 98


 1460      00
 1461 0112 00000000 		.ascii	"\000\000\000\000\007\000\000\000\003\300\000\037\377"
 1461      07000000 
 1461      03C0001F 
 1461      FF
 1462 011f FF000000 		.ascii	"\377\000\000\000\000\000\000\007\000\000\000\007\340"
 1462      00000007 
 1462      00000007 
 1462      E0
 1463 012c 401FFFFF 		.ascii	"@\037\377\377\000\000\000\000\000\000\007\000\000\000"
 1463      00000000 
 1463      00000700 
 1463      0000
 1464 013a 03C0001F 		.ascii	"\003\300\000\037\377\377\000\000\000\000\000\000\007"
 1464      FFFF0000 
 1464      00000000 
 1464      07
 1465 0147 00000018 		.ascii	"\000\000\000\030\030\000\037\007\377\000\000\000\000"
 1465      18001F07 
 1465      FF000000 
 1465      00
 1466 0154 00000700 		.ascii	"\000\000\007\000\000\000\030\030\000\037\007\377\000"
 1466      00001818 
 1466      001F07FF 
 1466      00
 1467 0161 00000000 		.ascii	"\000\000\000\000\000\007\000\000\000\030\030\000\037"
 1467      00070000 
 1467      00181800 
 1467      1F
 1468 016e 07FF0000 		.ascii	"\007\377\000\000\000\000\007\376\003\000\000\000\030"
 1468      000007FE 
 1468      03000000 
 1468      18
 1469 017b 06001807 		.ascii	"\006\000\030\007\377\000\000\000\000\007\377\003\000"
 1469      FF000000 
 1469      0007FF03 
 1469      00
 1470 0188 00001807 		.ascii	"\000\000\030\007\000\030\007\377\000\000\000\000\007"
 1470      001807FF 
 1470      00000000 
 1470      07
 1471 0195 87030000 		.ascii	"\207\003\000\000\000\030\000\000\000\007\377\000\000"
 1471      00180000 
 1471      0007FF00 
 1471      00
 1472 01a2 00000707 		.ascii	"\000\000\007\007\303\000\000\000\030\000\377\340\007"
 1472      C3000000 
 1472      1800FFE0 
 1472      07
 1473 01af FF000000 		.ascii	"\377\000\000\000\000\007\007\307\000\000\000\030\000"
 1473      000707C7 
 1473      00000018 
 1473      00
 1474 01bc FFC007FF 		.ascii	"\377\300\007\377\000\000\000\000\007\340\377\000\000"
 1474      00000000 
 1474      07E0FF00 
 1474      00
ARM GAS  C:\Users\3kb\AppData\Local\Temp\ccoOmmoe.s 			page 99


 1475 01c9 00180000 		.ascii	"\000\030\000\000\000\007\377\000\000\000\000\007\340"
 1475      0007FF00 
 1475      00000007 
 1475      E0
 1476 01d6 FF000000 		.ascii	"\377\000\000\000\030\000\000\000\007\377\000\000\000"
 1476      18000000 
 1476      07FF0000 
 1476      00
 1477 01e3 0003E0FF 		.ascii	"\000\003\340\377\000\000\000\030\000\000\000\003\377"
 1477      00000018 
 1477      00000003 
 1477      FF
 1478 01f0 00000000 		.ascii	"\000\000\000\000\000\370?\000\000\000\340\000\000\000"
 1478      00F83F00 
 1478      0000E000 
 1478      0000
 1479 01fe 00FF0000 		.ascii	"\000\377\000\000\000\000\000\370?\000\000\000\340\000"
 1479      000000F8 
 1479      3F000000 
 1479      E000
 1480 020c 000000FF 		.ascii	"\000\000\000\377\000\000\000\000\000\036\007\000\000"
 1480      00000000 
 1480      001E0700 
 1480      00
 1481 0219 00E00200 		.ascii	"\000\340\002\000\000@\377\000\000\000\000\000\037\007"
 1481      0040FF00 
 1481      00000000 
 1481      1F07
 1482 0227 020000E0 		.ascii	"\002\000\000\340\003\000\000\340\377\000\000\000\000"
 1482      030000E0 
 1482      FF000000 
 1482      00
 1483 0234 001F0700 		.ascii	"\000\037\007\000\000\000\340\003\000\000\340\377\000"
 1483      0000E003 
 1483      0000E0FF 
 1483      00
 1484 0241 00000000 		.ascii	"\000\000\000\000\007\377\000\000\000\340\037\000\303"
 1484      07FF0000 
 1484      00E01F00 
 1484      C3
 1485 024e E0FF0000 		.ascii	"\340\377\000\000\000\000\000\007\377\000\000\000\340"
 1485      00000007 
 1485      FF000000 
 1485      E0
 1486 025b 1F00E7E0 		.ascii	"\037\000\347\340\377\000\000\000\000\000\007\377\000"
 1486      FF000000 
 1486      000007FF 
 1486      00
 1487 0268 0000E01F 		.ascii	"\000\000\340\037\000\303\300\377\000\000\000\000\000"
 1487      00C3C0FF 
 1487      00000000 
 1487      00
 1488 0275 003F0000 		.ascii	"\000?\000\000\000\340\000\000\000\000\377\000\000\000"
 1488      00E00000 
 1488      0000FF00 
 1488      0000
 1489 0283 0000003F 		.ascii	"\000\000\000?\000\000@\340\000\000\000\000\377\000\000"
ARM GAS  C:\Users\3kb\AppData\Local\Temp\ccoOmmoe.s 			page 100


 1489      000040E0 
 1489      00000000 
 1489      FF0000
 1490 0292 00000000 		.ascii	"\000\000\000\000\037\000\000\000\340\002\002\002\000"
 1490      1F000000 
 1490      E0020202 
 1490      00
 1491 029f FF000000 		.ascii	"\377\000\000\000\000\000\000\007\000\000\000\340\007"
 1491      00000007 
 1491      000000E0 
 1491      07
 1492 02ac 070700FF 		.ascii	"\007\007\000\377\000\000\000\000\000\000\007\000\000"
 1492      00000000 
 1492      00000700 
 1492      00
 1493 02b9 00600707 		.ascii	"\000`\007\007\007\000\377\000\000\000\000\000\000\007"
 1493      0700FF00 
 1493      00000000 
 1493      0007
 1494 02c7 00000018 		.ascii	"\000\000\000\030\007\377\377\003\377\000\000\000\000"
 1494      07FFFF03 
 1494      FF000000 
 1494      00
 1495 02d4 00000700 		.ascii	"\000\000\007\000\000\000\030\007\377\377\007\377\000"
 1495      00001807 
 1495      FFFF07FF 
 1495      00
 1496 02e1 00000000 		.ascii	"\000\000\000\000\000\027\000\000\000\030\007\377\377"
 1496      00170000 
 1496      001807FF 
 1496      FF
 1497 02ee 07FF0002 		.ascii	"\007\377\000\002\000\000\000\000?\300\000\000\007\000"
 1497      00000000 
 1497      3FC00000 
 1497      0700
 1498 02fc 00003FFF 		.ascii	"\000\000?\377\000\002\000\000\000\000?\300\000\000\007"
 1498      00020000 
 1498      00003FC0 
 1498      000007
 1499 030b 0000003F 		.ascii	"\000\000\000?\377\000\000\000\000\000\000\377\300\000"
 1499      FF000000 
 1499      000000FF 
 1499      C000
 1500 0319 0007B7B7 		.ascii	"\000\007\267\267\376?\377\000\000\000\000\000\001\300"
 1500      FE3FFF00 
 1500      00000000 
 1500      01C0
 1501 0327 1FFFFFFF 		.ascii	"\037\377\377\377\377\377\377\377\377\000\000\000\000"
 1501      FFFFFFFF 
 1501      FF000000 
 1501      00
 1502 0334 0001C01F 		.ascii	"\000\001\300\037\377\377\377\377\377\377\377\377\000"
 1502      FFFFFFFF 
 1502      FFFFFFFF 
 1502      00
 1503 0341 00000000 		.ascii	"\000\000\000\000\001\300\377\340\377\377\340\377\007"
 1503      01C0FFE0 
ARM GAS  C:\Users\3kb\AppData\Local\Temp\ccoOmmoe.s 			page 101


 1503      FFFFE0FF 
 1503      07
 1504 034e FFFF00C0 		.ascii	"\377\377\000\300\000\300\000\001\300\377\340\377\377"
 1504      00C00001 
 1504      C0FFE0FF 
 1504      FF
 1505 035b E0FF07FF 		.ascii	"\340\377\007\377\377\177\037\000\000\007\375\340\377"
 1505      FF7F1F00 
 1505      0007FDE0 
 1505      FF
 1506 0368 E0FFFFE1 		.ascii	"\340\377\377\341\377\007\377\377\376\037\002\000\007"
 1506      FF07FFFF 
 1506      FE1F0200 
 1506      07
 1507 0375 FFFFFFFF 		.ascii	"\377\377\377\377\377\377\377\377\377\377\377\376\037"
 1507      FFFFFFFF 
 1507      FFFFFFFE 
 1507      1F
